

Microchip MPLAB XC8 Assembler V2.46 build 20240104201356 
                                                                                               Sat Sep 14 15:32:37 2024

Microchip MPLAB XC8 C Compiler v2.46 (Free license) build 20240104201356 Og1 
     1                           	processor	18F45K50
     2                           	fnconf	rparam,??,?,0
     3                           	pagewidth 120
     4                           	opt	flic
     5                           	psect	mediumconst,global,reloc=2,class=MEDIUMCONST,delta=1,noexec
     6                           	psect	cinit,global,reloc=2,class=CODE,delta=1
     7                           	psect	bssCOMRAM,global,class=COMRAM,space=1,delta=1,lowdata,noexec
     8                           	psect	cstackCOMRAM,global,class=COMRAM,space=1,delta=1,lowdata,noexec
     9                           	psect	text0,global,reloc=2,class=CODE,delta=1
    10                           	psect	text1,global,reloc=2,class=CODE,delta=1
    11                           	psect	text2,global,reloc=2,class=CODE,delta=1
    12                           	psect	text3,global,reloc=2,class=CODE,delta=1
    13                           	psect	text4,global,reloc=2,class=CODE,delta=1
    14                           	psect	text5,global,reloc=2,class=CODE,delta=1
    15                           	psect	text6,global,reloc=2,class=CODE,delta=1
    16                           	psect	text7,global,reloc=2,class=CODE,delta=1,group=2
    17                           	psect	text8,global,reloc=2,class=CODE,delta=1
    18                           	psect	text9,global,reloc=2,class=CODE,delta=1,group=3
    19                           	psect	text10,global,reloc=2,class=CODE,delta=1,group=1
    20                           	psect	text11,global,reloc=2,class=CODE,delta=1,group=1
    21                           	psect	text12,global,reloc=2,class=CODE,delta=1,group=3
    22                           	psect	text13,global,reloc=2,class=CODE,delta=1
    23                           	psect	text14,global,reloc=2,class=CODE,delta=1
    24                           	psect	text15,global,reloc=2,class=CODE,delta=1
    25                           	psect	intsave_regs,global,class=BIGRAM,space=1,delta=1,noexec
    26                           	psect	rparam,global,class=COMRAM,space=1,delta=1,noexec
    27                           	psect	config,global,abs,ovrld,class=CONFIG,space=4,delta=1,noexec
    28   000000                     
    29                           ; Generated 12/10/2023 GMT
    30                           ; 
    31                           ; Copyright © 2023, Microchip Technology Inc. and its subsidiaries ("Microchip")
    32                           ; All rights reserved.
    33                           ; 
    34                           ; This software is developed by Microchip Technology Inc. and its subsidiaries ("Microch
      +                          ip").
    35                           ; 
    36                           ; Redistribution and use in source and binary forms, with or without modification, are
    37                           ; permitted provided that the following conditions are met:
    38                           ; 
    39                           ;     1. Redistributions of source code must retain the above copyright notice, this lis
      +                          t of
    40                           ;        conditions and the following disclaimer.
    41                           ; 
    42                           ;     2. Redistributions in binary form must reproduce the above copyright notice, this 
      +                          list
    43                           ;        of conditions and the following disclaimer in the documentation and/or other
    44                           ;        materials provided with the distribution. Publication is not required when
    45                           ;        this file is used in an embedded application.
    46                           ; 
    47                           ;     3. Microchip's name may not be used to endorse or promote products derived from th
      +                          is
    48                           ;        software without specific prior written permission.
    49                           ; 
    50                           ; THIS SOFTWARE IS PROVIDED BY MICROCHIP "AS IS" AND ANY EXPRESS OR IMPLIED WARRANTIES,
    51                           ; INCLUDING, BUT NOT LIMITED TO, THE IMPLIED WARRANTIES OF MERCHANTABILITY AND FITNESS F
      +                          OR
    52                           ; PURPOSE ARE DISCLAIMED.  IN NO EVENT SHALL MICROCHIP BE LIABLE FOR ANY DIRECT, INDIREC
      +                          T,
    53                           ; INCIDENTAL, SPECIAL, EXEMPLARY, OR CONSEQUENTIAL DAMAGES (INCLUDING BUT NOT LIMITED TO
    54                           ; PROCUREMENT OF SUBSTITUTE GOODS OR SERVICES; LOSS OF USE, DATA OR PROFITS; OR BUSINESS
    55                           ; INTERRUPTION) HOWSOEVER CAUSED AND ON ANY THEORY OF LIABILITY, WHETHER IN CONTRACT, ST
      +                          RICT
    56                           ; LIABILITY, OR TORT (INCLUDING NEGLIGENCE OR OTHERWISE) ARISING IN ANY WAY OUT OF THE U
      +                          SE OF
    57                           ; THIS SOFTWARE, EVEN IF ADVISED OF THE POSSIBILITY OF SUCH DAMAGE.
    58                           ; 
    59                           ; 
    60                           ; Code-generator required, PIC18F45K50 Definitions
    61                           ; 
    62                           ; SFR Addresses
    63   000000                     _TRISBbits	set	3987
    64   000000                     _RCREG	set	4014
    65   000000                     _TXREG1	set	4013
    66   000000                     _SPBRG	set	4015
    67   000000                     _SPBRGH	set	4016
    68   000000                     _BRG161	set	32195
    69   000000                     _RCREG1	set	4014
    70   000000                     _TXSTAbits	set	4012
    71   000000                     _RCSTAbits	set	4011
    72   000000                     _BAUDCON1bits	set	4024
    73   000000                     _TXSTA1bits	set	4012
    74   000000                     _SSPEN	set	32309
    75   000000                     _TRMT	set	32097
    76   000000                     _TRISC7	set	31911
    77   000000                     _CREN	set	32092
    78   000000                     _TXEN1	set	32101
    79   000000                     _BRGH1	set	32098
    80   000000                     _TRISAbits	set	3986
    81   000000                     _TRISC6	set	31910
    82   000000                     _SPEN	set	32095
    83   000000                     _SYNC1	set	32100
    84   000000                     _SSPCON1bits	set	4038
    85   000000                     _OSCCON2bits	set	4050
    86   000000                     _OSCTUNEbits	set	3995
    87   000000                     _RC1IF	set	31989
    88   000000                     _OSCCONbits	set	4051
    89   000000                     _SSP1ADD	set	4040
    90   000000                     _SSPBUF	set	4041
    91                           
    92                           	psect	mediumconst
    93   007EE8                     __pmediumconst:
    94                           	callstack 0
    95   007EE8  00                 	db	0
    96   007EE9                     STR_24:
    97   007EE9  45                 	db	69	;'E'
    98   007EEA  52                 	db	82	;'R'
    99   007EEB  52                 	db	82	;'R'
   100   007EEC  4F                 	db	79	;'O'
   101   007EED  52                 	db	82	;'R'
   102   007EEE  5F                 	db	95	;'_'
   103   007EEF  43                 	db	67	;'C'
   104   007EF0  4F                 	db	79	;'O'
   105   007EF1  44                 	db	68	;'D'
   106   007EF2  45                 	db	69	;'E'
   107   007EF3  5F                 	db	95	;'_'
   108   007EF4  53                 	db	83	;'S'
   109   007EF5  50                 	db	80	;'P'
   110   007EF6  49                 	db	73	;'I'
   111   007EF7  5F                 	db	95	;'_'
   112   007EF8  42                 	db	66	;'B'
   113   007EF9  52                 	db	82	;'R'
   114   007EFA  5F                 	db	95	;'_'
   115   007EFB  4F                 	db	79	;'O'
   116   007EFC  56                 	db	86	;'V'
   117   007EFD  45                 	db	69	;'E'
   118   007EFE  52                 	db	82	;'R'
   119   007EFF  52                 	db	82	;'R'
   120   007F00  41                 	db	65	;'A'
   121   007F01  4E                 	db	78	;'N'
   122   007F02  47                 	db	71	;'G'
   123   007F03  45                 	db	69	;'E'
   124   007F04  00                 	db	0
   125   007F05  45                 	db	69	;'E'
   126   007F06  52                 	db	82	;'R'
   127   007F07  52                 	db	82	;'R'
   128   007F08  4F                 	db	79	;'O'
   129   007F09  52                 	db	82	;'R'
   130   007F0A  5F                 	db	95	;'_'
   131   007F0B  43                 	db	67	;'C'
   132   007F0C  4F                 	db	79	;'O'
   133   007F0D  44                 	db	68	;'D'
   134   007F0E  45                 	db	69	;'E'
   135   007F0F  5F                 	db	95	;'_'
   136   007F10  55                 	db	85	;'U'
   137   007F11  41                 	db	65	;'A'
   138   007F12  52                 	db	82	;'R'
   139   007F13  54                 	db	84	;'T'
   140   007F14  5F                 	db	95	;'_'
   141   007F15  43                 	db	67	;'C'
   142   007F16  4F                 	db	79	;'O'
   143   007F17  4E                 	db	78	;'N'
   144   007F18  46                 	db	70	;'F'
   145   007F19  49                 	db	73	;'I'
   146   007F1A  47                 	db	71	;'G'
   147   007F1B  20                 	db	32
   148   007F1C  0D                 	db	13
   149   007F1D  0A                 	db	10
   150   007F1E  00                 	db	0
   151   007F1F  45                 	db	69	;'E'
   152   007F20  52                 	db	82	;'R'
   153   007F21  52                 	db	82	;'R'
   154   007F22  4F                 	db	79	;'O'
   155   007F23  52                 	db	82	;'R'
   156   007F24  5F                 	db	95	;'_'
   157   007F25  43                 	db	67	;'C'
   158   007F26  4F                 	db	79	;'O'
   159   007F27  44                 	db	68	;'D'
   160   007F28  45                 	db	69	;'E'
   161   007F29  5F                 	db	95	;'_'
   162   007F2A  55                 	db	85	;'U'
   163   007F2B  41                 	db	65	;'A'
   164   007F2C  52                 	db	82	;'R'
   165   007F2D  54                 	db	84	;'T'
   166   007F2E  5F                 	db	95	;'_'
   167   007F2F  4F                 	db	79	;'O'
   168   007F30  56                 	db	86	;'V'
   169   007F31  45                 	db	69	;'E'
   170   007F32  52                 	db	82	;'R'
   171   007F33  46                 	db	70	;'F'
   172   007F34  4C                 	db	76	;'L'
   173   007F35  4F                 	db	79	;'O'
   174   007F36  57                 	db	87	;'W'
   175   007F37  00                 	db	0
   176   007F38  45                 	db	69	;'E'
   177   007F39  52                 	db	82	;'R'
   178   007F3A  52                 	db	82	;'R'
   179   007F3B  4F                 	db	79	;'O'
   180   007F3C  52                 	db	82	;'R'
   181   007F3D  5F                 	db	95	;'_'
   182   007F3E  43                 	db	67	;'C'
   183   007F3F  4F                 	db	79	;'O'
   184   007F40  44                 	db	68	;'D'
   185   007F41  45                 	db	69	;'E'
   186   007F42  5F                 	db	95	;'_'
   187   007F43  55                 	db	85	;'U'
   188   007F44  41                 	db	65	;'A'
   189   007F45  52                 	db	82	;'R'
   190   007F46  54                 	db	84	;'T'
   191   007F47  5F                 	db	95	;'_'
   192   007F48  46                 	db	70	;'F'
   193   007F49  52                 	db	82	;'R'
   194   007F4A  41                 	db	65	;'A'
   195   007F4B  4D                 	db	77	;'M'
   196   007F4C  49                 	db	73	;'I'
   197   007F4D  4E                 	db	78	;'N'
   198   007F4E  47                 	db	71	;'G'
   199   007F4F  00                 	db	0
   200   007F50                     STR_5:
   201   007F50  62                 	db	98	;'b'
   202   007F51  61                 	db	97	;'a'
   203   007F52  6A                 	db	106	;'j'
   204   007F53  61                 	db	97	;'a'
   205   007F54  20                 	db	32
   206   007F55  76                 	db	118	;'v'
   207   007F56  65                 	db	101	;'e'
   208   007F57  6C                 	db	108	;'l'
   209   007F58  6F                 	db	111	;'o'
   210   007F59  63                 	db	99	;'c'
   211   007F5A  69                 	db	105	;'i'
   212   007F5B  64                 	db	100	;'d'
   213   007F5C  61                 	db	97	;'a'
   214   007F5D  64                 	db	100	;'d'
   215   007F5E  20                 	db	32
   216   007F5F  0D                 	db	13
   217   007F60  0A                 	db	10
   218   007F61  00                 	db	0
   219   007F62                     STR_4:
   220   007F62  61                 	db	97	;'a'
   221   007F63  6C                 	db	108	;'l'
   222   007F64  74                 	db	116	;'t'
   223   007F65  61                 	db	97	;'a'
   224   007F66  20                 	db	32
   225   007F67  76                 	db	118	;'v'
   226   007F68  65                 	db	101	;'e'
   227   007F69  6C                 	db	108	;'l'
   228   007F6A  6F                 	db	111	;'o'
   229   007F6B  63                 	db	99	;'c'
   230   007F6C  69                 	db	105	;'i'
   231   007F6D  64                 	db	100	;'d'
   232   007F6E  61                 	db	97	;'a'
   233   007F6F  64                 	db	100	;'d'
   234   007F70  20                 	db	32
   235   007F71  0D                 	db	13
   236   007F72  0A                 	db	10
   237   007F73  00                 	db	0
   238   007F74                     STR_12:
   239   007F74  44                 	db	68	;'D'
   240   007F75  65                 	db	101	;'e'
   241   007F76  73                 	db	115	;'s'
   242   007F77  68                 	db	104	;'h'
   243   007F78  61                 	db	97	;'a'
   244   007F79  62                 	db	98	;'b'
   245   007F7A  69                 	db	105	;'i'
   246   007F7B  6C                 	db	108	;'l'
   247   007F7C  69                 	db	105	;'i'
   248   007F7D  74                 	db	116	;'t'
   249   007F7E  61                 	db	97	;'a'
   250   007F7F  64                 	db	100	;'d'
   251   007F80  6F                 	db	111	;'o'
   252   007F81  20                 	db	32
   253   007F82  0D                 	db	13
   254   007F83  0A                 	db	10
   255   007F84  00                 	db	0
   256   007F85                     STR_11:
   257   007F85  48                 	db	72	;'H'
   258   007F86  61                 	db	97	;'a'
   259   007F87  62                 	db	98	;'b'
   260   007F88  69                 	db	105	;'i'
   261   007F89  6C                 	db	108	;'l'
   262   007F8A  69                 	db	105	;'i'
   263   007F8B  74                 	db	116	;'t'
   264   007F8C  61                 	db	97	;'a'
   265   007F8D  64                 	db	100	;'d'
   266   007F8E  6F                 	db	111	;'o'
   267   007F8F  20                 	db	32
   268   007F90  0D                 	db	13
   269   007F91  0A                 	db	10
   270   007F92  00                 	db	0
   271   007F93                     STR_9:
   272   007F93  78                 	db	120	;'x'
   273   007F94  20                 	db	32
   274   007F95  62                 	db	98	;'b'
   275   007F96  61                 	db	97	;'a'
   276   007F97  75                 	db	117	;'u'
   277   007F98  64                 	db	100	;'d'
   278   007F99  69                 	db	105	;'i'
   279   007F9A  6F                 	db	111	;'o'
   280   007F9B  73                 	db	115	;'s'
   281   007F9C  20                 	db	32
   282   007F9D  0D                 	db	13
   283   007F9E  0A                 	db	10
   284   007F9F  00                 	db	0
   285   007FA0                     STR_6:
   286   007FA0  42                 	db	66	;'B'
   287   007FA1  61                 	db	97	;'a'
   288   007FA2  75                 	db	117	;'u'
   289   007FA3  64                 	db	100	;'d'
   290   007FA4  72                 	db	114	;'r'
   291   007FA5  61                 	db	97	;'a'
   292   007FA6  74                 	db	116	;'t'
   293   007FA7  65                 	db	101	;'e'
   294   007FA8  3A                 	db	58	;':'
   295   007FA9  20                 	db	32
   296   007FAA  00                 	db	0
   297   007FAB                     STR_16:
   298   007FAB  52                 	db	82	;'R'
   299   007FAC  65                 	db	101	;'e'
   300   007FAD  63                 	db	99	;'c'
   301   007FAE  65                 	db	101	;'e'
   302   007FAF  70                 	db	112	;'p'
   303   007FB0  74                 	db	116	;'t'
   304   007FB1  6F                 	db	111	;'o'
   305   007FB2  72                 	db	114	;'r'
   306   007FB3  3A                 	db	58	;':'
   307   007FB4  20                 	db	32
   308   007FB5  00                 	db	0
   309   007FB6                     STR_3:
   310   007FB6  41                 	db	65	;'A'
   311   007FB7  73                 	db	115	;'s'
   312   007FB8  69                 	db	105	;'i'
   313   007FB9  6E                 	db	110	;'n'
   314   007FBA  63                 	db	99	;'c'
   315   007FBB  72                 	db	114	;'r'
   316   007FBC  6F                 	db	111	;'o'
   317   007FBD  6E                 	db	110	;'n'
   318   007FBE  6F                 	db	111	;'o'
   319   007FBF  20                 	db	32
   320   007FC0  00                 	db	0
   321   007FC1                     STR_13:
   322   007FC1  54                 	db	84	;'T'
   323   007FC2  72                 	db	114	;'r'
   324   007FC3  61                 	db	97	;'a'
   325   007FC4  6E                 	db	110	;'n'
   326   007FC5  73                 	db	115	;'s'
   327   007FC6  6F                 	db	111	;'o'
   328   007FC7  72                 	db	114	;'r'
   329   007FC8  3A                 	db	58	;':'
   330   007FC9  20                 	db	32
   331   007FCA  00                 	db	0
   332   007FCB                     STR_2:
   333   007FCB  53                 	db	83	;'S'
   334   007FCC  69                 	db	105	;'i'
   335   007FCD  6E                 	db	110	;'n'
   336   007FCE  63                 	db	99	;'c'
   337   007FCF  72                 	db	114	;'r'
   338   007FD0  6F                 	db	111	;'o'
   339   007FD1  6E                 	db	110	;'n'
   340   007FD2  6F                 	db	111	;'o'
   341   007FD3  20                 	db	32
   342   007FD4  00                 	db	0
   343   007FD5                     STR_10:
   344   007FD5  50                 	db	80	;'P'
   345   007FD6  75                 	db	117	;'u'
   346   007FD7  65                 	db	101	;'e'
   347   007FD8  72                 	db	114	;'r'
   348   007FD9  74                 	db	116	;'t'
   349   007FDA  6F                 	db	111	;'o'
   350   007FDB  3A                 	db	58	;':'
   351   007FDC  20                 	db	32
   352   007FDD  00                 	db	0
   353   007FDE                     STR_7:
   354   007FDE  31                 	db	49	;'1'
   355   007FDF  36                 	db	54	;'6'
   356   007FE0  20                 	db	32
   357   007FE1  62                 	db	98	;'b'
   358   007FE2  69                 	db	105	;'i'
   359   007FE3  74                 	db	116	;'t'
   360   007FE4  73                 	db	115	;'s'
   361   007FE5  20                 	db	32
   362   007FE6  00                 	db	0
   363   007FE7                     STR_19:
   364   007FE7  45                 	db	69	;'E'
   365   007FE8  72                 	db	114	;'r'
   366   007FE9  72                 	db	114	;'r'
   367   007FEA  6F                 	db	111	;'o'
   368   007FEB  72                 	db	114	;'r'
   369   007FEC  3A                 	db	58	;':'
   370   007FED  20                 	db	32
   371   007FEE  00                 	db	0
   372   007FEF                     STR_8:
   373   007FEF  38                 	db	56	;'8'
   374   007FF0  20                 	db	32
   375   007FF1  62                 	db	98	;'b'
   376   007FF2  69                 	db	105	;'i'
   377   007FF3  74                 	db	116	;'t'
   378   007FF4  73                 	db	115	;'s'
   379   007FF5  20                 	db	32
   380   007FF6  00                 	db	0
   381   007FF7                     STR_1:
   382   007FF7  4D                 	db	77	;'M'
   383   007FF8  6F                 	db	111	;'o'
   384   007FF9  64                 	db	100	;'d'
   385   007FFA  6F                 	db	111	;'o'
   386   007FFB  3A                 	db	58	;':'
   387   007FFC  20                 	db	32
   388   007FFD  00                 	db	0
   389   007FFE  00                 	db	0	; dummy byte at the end
   390   000000                     
   391                           ; #config settings
   392                           
   393                           	psect	cinit
   394   007618                     __pcinit:
   395                           	callstack 0
   396   007618                     start_initialization:
   397                           	callstack 0
   398   007618                     __initialization:
   399                           	callstack 0
   400                           
   401                           ; Clear objects allocated to COMRAM (37 bytes)
   402   007618  EE00  F029         	lfsr	0,__pbssCOMRAM
   403   00761C  0E25               	movlw	37
   404   00761E                     clear_0:
   405   00761E  6AEE               	clrf	postinc0,c
   406   007620  06E8               	decf	wreg,f,c
   407   007622  E1FD               	bnz	clear_0
   408   007624                     end_of_initialization:
   409                           	callstack 0
   410   007624                     __end_of__initialization:
   411                           	callstack 0
   412   007624  0E00               	movlw	low (__Lmediumconst shr (0+16))
   413   007626  6EF8               	movwf	tblptru,c
   414   007628  0100               	movlb	0
   415   00762A  EF51  F03B         	goto	_main	;jump to C main() function
   416                           
   417                           	psect	bssCOMRAM
   418   000029                     __pbssCOMRAM:
   419                           	callstack 0
   420   000029                     	ds	32
   421   000049                     _width:
   422                           	callstack 0
   423   000049                     	ds	2
   424   00004B                     _prec:
   425                           	callstack 0
   426   00004B                     	ds	2
   427   00004D                     _flags:
   428                           	callstack 0
   429   00004D                     	ds	1
   430                           
   431                           	psect	cstackCOMRAM
   432   000001                     __pcstackCOMRAM:
   433                           	callstack 0
   434   000001                     ?___aldiv:
   435                           	callstack 0
   436   000001                     UART_Tx@dato:
   437                           	callstack 0
   438   000001                     SPI_write@dato:
   439                           	callstack 0
   440   000001                     Clock_Init@s16Timeout:
   441                           	callstack 0
   442   000001                     UART_select_baud@baudrate:
   443                           	callstack 0
   444   000001                     ___aldiv@dividend:
   445                           	callstack 0
   446                           
   447                           ; 4 bytes @ 0x0
   448   000001                     	ds	1
   449   000002                     putch@data:
   450                           	callstack 0
   451                           
   452                           ; 1 bytes @ 0x1
   453   000002                     	ds	1
   454   000003                     Clock_Init@bStatus:
   455                           	callstack 0
   456   000003                     fputc@c:
   457                           	callstack 0
   458                           
   459                           ; 2 bytes @ 0x2
   460   000003                     	ds	1
   461   000004                     Clock_Init@bStatus_548:
   462                           	callstack 0
   463                           
   464                           ; 1 bytes @ 0x3
   465   000004                     	ds	1
   466   000005                     ??_UART_select_baud:
   467   000005                     Clock_Init@bStatus_549:
   468                           	callstack 0
   469   000005                     fputc@fp:
   470                           	callstack 0
   471   000005                     ___aldiv@divisor:
   472                           	callstack 0
   473                           
   474                           ; 4 bytes @ 0x4
   475   000005                     	ds	1
   476   000006                     Clock_Init@bStatus_552:
   477                           	callstack 0
   478                           
   479                           ; 1 bytes @ 0x5
   480   000006                     	ds	1
   481   000007                     ??_fputc:
   482   000007                     Clock_Init@bItTimeEn:
   483                           	callstack 0
   484                           
   485                           ; 1 bytes @ 0x6
   486   000007                     	ds	1
   487   000008                     Clock_Init@returnCode:
   488                           	callstack 0
   489                           
   490                           ; 1 bytes @ 0x7
   491   000008                     	ds	1
   492   000009                     ___aldiv@counter:
   493                           	callstack 0
   494                           
   495                           ; 1 bytes @ 0x8
   496   000009                     	ds	1
   497   00000A                     ___aldiv@sign:
   498                           	callstack 0
   499                           
   500                           ; 1 bytes @ 0x9
   501   00000A                     	ds	1
   502   00000B                     ___aldiv@quotient:
   503                           	callstack 0
   504                           
   505                           ; 4 bytes @ 0xA
   506   00000B                     	ds	1
   507   00000C                     vfpfcnvrt@fp:
   508                           	callstack 0
   509                           
   510                           ; 2 bytes @ 0xB
   511   00000C                     	ds	2
   512   00000E                     vfpfcnvrt@fmt:
   513                           	callstack 0
   514                           
   515                           ; 1 bytes @ 0xD
   516   00000E                     	ds	1
   517   00000F                     vfpfcnvrt@ap:
   518                           	callstack 0
   519                           
   520                           ; 1 bytes @ 0xE
   521   00000F                     	ds	1
   522   000010                     ?_vfprintf:
   523                           	callstack 0
   524   000010                     vfprintf@fp:
   525                           	callstack 0
   526                           
   527                           ; 2 bytes @ 0xF
   528   000010                     	ds	2
   529   000012                     vfprintf@fmt:
   530                           	callstack 0
   531                           
   532                           ; 2 bytes @ 0x11
   533   000012                     	ds	2
   534   000014                     vfprintf@ap:
   535                           	callstack 0
   536                           
   537                           ; 1 bytes @ 0x13
   538   000014                     	ds	1
   539   000015                     vfprintf@cfmt:
   540                           	callstack 0
   541                           
   542                           ; 2 bytes @ 0x14
   543   000015                     	ds	2
   544   000017                     ?_printf:
   545                           	callstack 0
   546   000017                     printf@fmt:
   547                           	callstack 0
   548                           
   549                           ; 2 bytes @ 0x16
   550   000017                     	ds	2
   551   000019                     printf@ap:
   552                           	callstack 0
   553                           
   554                           ; 1 bytes @ 0x18
   555   000019                     	ds	1
   556   00001A                     ??_SPI_ErrorHandler:
   557   00001A                     UART_Init@baudrate:
   558                           	callstack 0
   559                           
   560                           ; 4 bytes @ 0x19
   561   00001A                     	ds	2
   562   00001C                     SPI_ErrorHandler@errorCode:
   563                           	callstack 0
   564                           
   565                           ; 1 bytes @ 0x1B
   566   00001C                     	ds	1
   567   00001D                     SPI_BaudRateGen@FClock:
   568                           	callstack 0
   569                           
   570                           ; 4 bytes @ 0x1C
   571   00001D                     	ds	1
   572   00001E                     
   573                           ; 1 bytes @ 0x1D
   574   00001E                     	ds	3
   575   000021                     ??_SPI_BaudRateGen:
   576                           
   577                           ; 1 bytes @ 0x20
   578   000021                     	ds	4
   579   000025                     SPI_BaudRateGen@baudReg:
   580                           	callstack 0
   581                           
   582                           ; 4 bytes @ 0x24
   583   000025                     	ds	4
   584   000029                     
   585                           ; 1 bytes @ 0x28
   586 ;;
   587 ;;Main: autosize = 0, tempsize = 0, incstack = 0, save=0
   588 ;;
   589 ;; *************** function _main *****************
   590 ;; Defined at:
   591 ;;		line 15 in file "main.c"
   592 ;; Parameters:    Size  Location     Type
   593 ;;		None
   594 ;; Auto vars:     Size  Location     Type
   595 ;;		None
   596 ;; Return value:  Size  Location     Type
   597 ;;                  1    wreg      void 
   598 ;; Registers used:
   599 ;;		wreg, fsr1l, fsr1h, fsr2l, fsr2h, status,2, status,0, tblptrl, tblptrh, tblptru, cstack
   600 ;; Tracked objects:
   601 ;;		On entry : 0/0
   602 ;;		On exit  : 0/0
   603 ;;		Unchanged: 0/0
   604 ;; Data sizes:     COMRAM   BANK0   BANK1   BANK2   BANK3   BANK4   BANK5   BANK6   BANK7
   605 ;;      Params:         0       0       0       0       0       0       0       0       0
   606 ;;      Locals:         0       0       0       0       0       0       0       0       0
   607 ;;      Temps:          0       0       0       0       0       0       0       0       0
   608 ;;      Totals:         0       0       0       0       0       0       0       0       0
   609 ;;Total ram usage:        0 bytes
   610 ;; Hardware stack levels required when called: 9
   611 ;; This function calls:
   612 ;;		_Clock_Init
   613 ;;		_SPI_master_init
   614 ;;		_SPI_write
   615 ;;		_UART_Init
   616 ;; This function is called by:
   617 ;;		Startup code after reset
   618 ;; This function uses a non-reentrant model
   619 ;;
   620                           
   621                           	psect	text0
   622   0076A2                     __ptext0:
   623                           	callstack 0
   624   0076A2                     _main:
   625                           	callstack 22
   626   0076A2                     
   627                           ;main.c: 16:     Clock_Init(16000);
   628   0076A2  0E3E               	movlw	62
   629   0076A4  6E02               	movwf	(Clock_Init@s16Timeout+1)^0,c
   630   0076A6  0E80               	movlw	128
   631   0076A8  6E01               	movwf	Clock_Init@s16Timeout^0,c
   632   0076AA  EC69  F03E         	call	_Clock_Init	;wreg free
   633   0076AE                     
   634                           ;main.c: 17:     UART_Init(9600);
   635   0076AE  0E80               	movlw	128
   636   0076B0  6E1A               	movwf	UART_Init@baudrate^0,c
   637   0076B2  0E25               	movlw	37
   638   0076B4  6E1B               	movwf	(UART_Init@baudrate+1)^0,c
   639   0076B6  0E00               	movlw	0
   640   0076B8  6E1C               	movwf	(UART_Init@baudrate+2)^0,c
   641   0076BA  0E00               	movlw	0
   642   0076BC  6E1D               	movwf	(UART_Init@baudrate+3)^0,c
   643   0076BE  EC26  F03B         	call	_UART_Init	;wreg free
   644   0076C2                     
   645                           ;main.c: 18:     SPI_master_init();
   646   0076C2  EC3B  F03B         	call	_SPI_master_init	;wreg free
   647   0076C6                     
   648                           ;main.c: 19:     SPI_write('a');
   649   0076C6  0E61               	movlw	97
   650   0076C8  ECF8  F03A         	call	_SPI_write
   651   0076CC                     l13:
   652   0076CC  EF66  F03B         	goto	l13
   653   0076D0  EF00  F000         	goto	start
   654   0076D4                     __end_of_main:
   655                           	callstack 0
   656                           
   657 ;; *************** function _UART_Init *****************
   658 ;; Defined at:
   659 ;;		line 20 in file "librerias/UART.c"
   660 ;; Parameters:    Size  Location     Type
   661 ;;  baudrate        4   25[COMRAM] unsigned long 
   662 ;; Auto vars:     Size  Location     Type
   663 ;;		None
   664 ;; Return value:  Size  Location     Type
   665 ;;                  1    wreg      void 
   666 ;; Registers used:
   667 ;;		wreg, fsr1l, fsr1h, fsr2l, fsr2h, status,2, status,0, tblptrl, tblptrh, tblptru, cstack
   668 ;; Tracked objects:
   669 ;;		On entry : 0/0
   670 ;;		On exit  : 0/0
   671 ;;		Unchanged: 0/0
   672 ;; Data sizes:     COMRAM   BANK0   BANK1   BANK2   BANK3   BANK4   BANK5   BANK6   BANK7
   673 ;;      Params:         4       0       0       0       0       0       0       0       0
   674 ;;      Locals:         0       0       0       0       0       0       0       0       0
   675 ;;      Temps:          0       0       0       0       0       0       0       0       0
   676 ;;      Totals:         4       0       0       0       0       0       0       0       0
   677 ;;Total ram usage:        4 bytes
   678 ;; Hardware stack levels used: 1
   679 ;; Hardware stack levels required when called: 7
   680 ;; This function calls:
   681 ;;		_UART_config_show
   682 ;;		_UART_select_baud
   683 ;; This function is called by:
   684 ;;		_main
   685 ;; This function uses a non-reentrant model
   686 ;;
   687                           
   688                           	psect	text1
   689   00764C                     __ptext1:
   690                           	callstack 0
   691   00764C                     _UART_Init:
   692                           	callstack 23
   693   00764C                     
   694                           ;librerias/UART.c: 21:     TXSTA1bits.SYNC1 = 0;
   695   00764C  98AC               	bcf	172,4,c	;volatile
   696                           
   697                           ;librerias/UART.c: 22:     TXSTA1bits.BRGH1 = 1;
   698   00764E  84AC               	bsf	172,2,c	;volatile
   699                           
   700                           ;librerias/UART.c: 23:     BAUDCON1bits.BRG161 = 1;
   701   007650  86B8               	bsf	184,3,c	;volatile
   702   007652                     
   703                           ;librerias/UART.c: 24:     UART_select_baud(baudrate);
   704   007652  C01A  F001         	movff	UART_Init@baudrate,UART_select_baud@baudrate
   705   007656  C01B  F002         	movff	UART_Init@baudrate+1,UART_select_baud@baudrate+1
   706   00765A  C01C  F003         	movff	UART_Init@baudrate+2,UART_select_baud@baudrate+2
   707   00765E  C01D  F004         	movff	UART_Init@baudrate+3,UART_select_baud@baudrate+3
   708   007662  EC26  F03D         	call	_UART_select_baud	;wreg free
   709   007666                     
   710                           ;librerias/UART.c: 25:     TRISC6 = 1;
   711   007666  8C94               	bsf	3988,6,c	;volatile
   712   007668                     
   713                           ;librerias/UART.c: 26:     TRISC7 = 1;
   714   007668  8E94               	bsf	3988,7,c	;volatile
   715   00766A                     
   716                           ;librerias/UART.c: 27:     RCSTAbits.SPEN = 1;
   717   00766A  8EAB               	bsf	171,7,c	;volatile
   718   00766C                     
   719                           ;librerias/UART.c: 28:     TXSTAbits.TXEN1 = 1;
   720   00766C  8AAC               	bsf	172,5,c	;volatile
   721   00766E                     
   722                           ;librerias/UART.c: 29:     RCSTAbits.CREN = 1;
   723   00766E  88AB               	bsf	171,4,c	;volatile
   724   007670                     
   725                           ;librerias/UART.c: 30:     UART_config_show();
   726   007670  ECC6  F03D         	call	_UART_config_show	;wreg free
   727   007674  0012               	return		;funcret
   728   007676                     __end_of_UART_Init:
   729                           	callstack 0
   730                           
   731 ;; *************** function _UART_select_baud *****************
   732 ;; Defined at:
   733 ;;		line 33 in file "librerias/UART.c"
   734 ;; Parameters:    Size  Location     Type
   735 ;;  baudrate        4    0[COMRAM] unsigned long 
   736 ;; Auto vars:     Size  Location     Type
   737 ;;		None
   738 ;; Return value:  Size  Location     Type
   739 ;;                  1    wreg      void 
   740 ;; Registers used:
   741 ;;		wreg, status,2, status,0
   742 ;; Tracked objects:
   743 ;;		On entry : 0/0
   744 ;;		On exit  : 0/0
   745 ;;		Unchanged: 0/0
   746 ;; Data sizes:     COMRAM   BANK0   BANK1   BANK2   BANK3   BANK4   BANK5   BANK6   BANK7
   747 ;;      Params:         4       0       0       0       0       0       0       0       0
   748 ;;      Locals:         0       0       0       0       0       0       0       0       0
   749 ;;      Temps:          4       0       0       0       0       0       0       0       0
   750 ;;      Totals:         8       0       0       0       0       0       0       0       0
   751 ;;Total ram usage:        8 bytes
   752 ;; Hardware stack levels used: 1
   753 ;; This function calls:
   754 ;;		Nothing
   755 ;; This function is called by:
   756 ;;		_UART_Init
   757 ;; This function uses a non-reentrant model
   758 ;;
   759                           
   760                           	psect	text2
   761   007A4C                     __ptext2:
   762                           	callstack 0
   763   007A4C                     _UART_select_baud:
   764                           	callstack 29
   765   007A4C                     
   766                           ;librerias/UART.c: 34:     switch (baudrate){
   767   007A4C  EF58  F03D         	goto	l1563
   768   007A50                     l1545:
   769                           
   770                           ;librerias/UART.c: 36:             SPBRGH = 0x9C;
   771   007A50  0E9C               	movlw	156
   772   007A52  6EB0               	movwf	176,c	;volatile
   773                           
   774                           ;librerias/UART.c: 37:             SPBRG = 0x3F;
   775   007A54  0E3F               	movlw	63
   776   007A56  6EAF               	movwf	175,c	;volatile
   777                           
   778                           ;librerias/UART.c: 38:             break;
   779   007A58  EFC5  F03D         	goto	l103
   780   007A5C                     l1547:
   781                           
   782                           ;librerias/UART.c: 40:             SPBRGH = 0x27;
   783   007A5C  0E27               	movlw	39
   784   007A5E  6EB0               	movwf	176,c	;volatile
   785                           
   786                           ;librerias/UART.c: 41:             SPBRG = 0x0F;
   787   007A60  0E0F               	movlw	15
   788   007A62  6EAF               	movwf	175,c	;volatile
   789                           
   790                           ;librerias/UART.c: 42:             break;
   791   007A64  EFC5  F03D         	goto	l103
   792   007A68                     l1549:
   793                           
   794                           ;librerias/UART.c: 44:             SPBRGH = 0x13;
   795   007A68  0E13               	movlw	19
   796   007A6A  6EB0               	movwf	176,c	;volatile
   797                           
   798                           ;librerias/UART.c: 45:             SPBRG = 0x87;
   799   007A6C  0E87               	movlw	135
   800   007A6E  6EAF               	movwf	175,c	;volatile
   801                           
   802                           ;librerias/UART.c: 46:             break;
   803   007A70  EFC5  F03D         	goto	l103
   804   007A74                     l1551:
   805                           
   806                           ;librerias/UART.c: 48:             SPBRGH = 0x04;
   807   007A74  0E04               	movlw	4
   808   007A76  6EB0               	movwf	176,c	;volatile
   809                           
   810                           ;librerias/UART.c: 49:             SPBRG = 0x7F;
   811   007A78  0E7F               	movlw	127
   812   007A7A  6EAF               	movwf	175,c	;volatile
   813                           
   814                           ;librerias/UART.c: 50:             break;
   815   007A7C  EFC5  F03D         	goto	l103
   816   007A80                     l1553:
   817                           
   818                           ;librerias/UART.c: 52:             SPBRGH = 0x02;
   819   007A80  0E02               	movlw	2
   820   007A82  6EB0               	movwf	176,c	;volatile
   821                           
   822                           ;librerias/UART.c: 53:             SPBRG = 0x70;
   823   007A84  0E70               	movlw	112
   824   007A86  6EAF               	movwf	175,c	;volatile
   825                           
   826                           ;librerias/UART.c: 54:             break;
   827   007A88  EFC5  F03D         	goto	l103
   828   007A8C                     l1555:
   829                           
   830                           ;librerias/UART.c: 56:             SPBRGH = 0x00;
   831   007A8C  0E00               	movlw	0
   832   007A8E  6EB0               	movwf	176,c	;volatile
   833                           
   834                           ;librerias/UART.c: 57:             SPBRG = 0xCF;
   835   007A90  0ECF               	movlw	207
   836   007A92  6EAF               	movwf	175,c	;volatile
   837                           
   838                           ;librerias/UART.c: 58:             break;
   839   007A94  EFC5  F03D         	goto	l103
   840   007A98                     l1557:
   841                           
   842                           ;librerias/UART.c: 60:             SPBRGH = 0x00;
   843   007A98  0E00               	movlw	0
   844   007A9A  6EB0               	movwf	176,c	;volatile
   845                           
   846                           ;librerias/UART.c: 61:             SPBRG = 0x67;
   847   007A9C  0E67               	movlw	103
   848   007A9E  6EAF               	movwf	175,c	;volatile
   849                           
   850                           ;librerias/UART.c: 62:             break;
   851   007AA0  EFC5  F03D         	goto	l103
   852   007AA4                     l1559:
   853                           
   854                           ;librerias/UART.c: 64:             SPBRGH = 0x04;
   855   007AA4  0E04               	movlw	4
   856   007AA6  6EB0               	movwf	176,c	;volatile
   857                           
   858                           ;librerias/UART.c: 65:             SPBRG = 0xE1;
   859   007AA8  0EE1               	movlw	225
   860   007AAA  6EAF               	movwf	175,c	;volatile
   861                           
   862                           ;librerias/UART.c: 66:             break;
   863   007AAC  EFC5  F03D         	goto	l103
   864   007AB0                     l1563:
   865   007AB0  C001  F005         	movff	UART_select_baud@baudrate,??_UART_select_baud
   866   007AB4  C002  F006         	movff	UART_select_baud@baudrate+1,??_UART_select_baud+1
   867   007AB8  C003  F007         	movff	UART_select_baud@baudrate+2,??_UART_select_baud+2
   868   007ABC  C004  F008         	movff	UART_select_baud@baudrate+3,??_UART_select_baud+3
   869                           
   870                           ; Switch on 2 bytes has been partitioned into a top level switch of size 1, and 3 sub-sw
      +                          itches
   871                           ; Switch size 1, requested type "simple"
   872                           ; Number of cases is 1, Range of values is 0 to 0
   873                           ; switch strategies available:
   874                           ; Name         Instructions Cycles
   875                           ; simple_byte            4     3 (average)
   876                           ;	Chosen strategy is simple_byte
   877   007AC0  5008               	movf	(??_UART_select_baud+3)^0,w,c
   878   007AC2  0A00               	xorlw	0	; case 0
   879   007AC4  B4D8               	btfsc	status,2,c
   880   007AC6  EFBA  F03D         	goto	l1813
   881   007ACA  EF52  F03D         	goto	l1559
   882   007ACE                     l1809:
   883                           
   884                           ; Switch on 2 bytes has been partitioned into a top level switch of size 1, and 6 sub-sw
      +                          itches
   885                           ; Switch size 1, requested type "simple"
   886                           ; Number of cases is 6, Range of values is 1 to 225
   887                           ; switch strategies available:
   888                           ; Name         Instructions Cycles
   889                           ; simple_byte           19    10 (average)
   890                           ;	Chosen strategy is simple_byte
   891   007ACE  5006               	movf	(??_UART_select_baud+1)^0,w,c
   892   007AD0  0A01               	xorlw	1	; case 1
   893   007AD2  B4D8               	btfsc	status,2,c
   894   007AD4  EF82  F03D         	goto	l1815
   895   007AD8  0A05               	xorlw	5	; case 4
   896   007ADA  B4D8               	btfsc	status,2,c
   897   007ADC  EF89  F03D         	goto	l1817
   898   007AE0  0A0D               	xorlw	13	; case 9
   899   007AE2  B4D8               	btfsc	status,2,c
   900   007AE4  EF90  F03D         	goto	l1819
   901   007AE8  0A21               	xorlw	33	; case 40
   902   007AEA  B4D8               	btfsc	status,2,c
   903   007AEC  EF97  F03D         	goto	l1821
   904   007AF0  0A63               	xorlw	99	; case 75
   905   007AF2  B4D8               	btfsc	status,2,c
   906   007AF4  EF9E  F03D         	goto	l1823
   907   007AF8  0AAA               	xorlw	170	; case 225
   908   007AFA  B4D8               	btfsc	status,2,c
   909   007AFC  EFA5  F03D         	goto	l1825
   910   007B00  EF52  F03D         	goto	l1559
   911   007B04                     l1815:
   912                           
   913                           ; Switch size 1, requested type "simple"
   914                           ; Number of cases is 1, Range of values is 44 to 44
   915                           ; switch strategies available:
   916                           ; Name         Instructions Cycles
   917                           ; simple_byte            4     3 (average)
   918                           ;	Chosen strategy is simple_byte
   919   007B04  5005               	movf	??_UART_select_baud^0,w,c
   920   007B06  0A2C               	xorlw	44	; case 44
   921   007B08  B4D8               	btfsc	status,2,c
   922   007B0A  EF28  F03D         	goto	l1545
   923   007B0E  EF52  F03D         	goto	l1559
   924   007B12                     l1817:
   925                           
   926                           ; Switch size 1, requested type "simple"
   927                           ; Number of cases is 1, Range of values is 176 to 176
   928                           ; switch strategies available:
   929                           ; Name         Instructions Cycles
   930                           ; simple_byte            4     3 (average)
   931                           ;	Chosen strategy is simple_byte
   932   007B12  5005               	movf	??_UART_select_baud^0,w,c
   933   007B14  0AB0               	xorlw	176	; case 176
   934   007B16  B4D8               	btfsc	status,2,c
   935   007B18  EF2E  F03D         	goto	l1547
   936   007B1C  EF52  F03D         	goto	l1559
   937   007B20                     l1819:
   938                           
   939                           ; Switch size 1, requested type "simple"
   940                           ; Number of cases is 1, Range of values is 96 to 96
   941                           ; switch strategies available:
   942                           ; Name         Instructions Cycles
   943                           ; simple_byte            4     3 (average)
   944                           ;	Chosen strategy is simple_byte
   945   007B20  5005               	movf	??_UART_select_baud^0,w,c
   946   007B22  0A60               	xorlw	96	; case 96
   947   007B24  B4D8               	btfsc	status,2,c
   948   007B26  EF34  F03D         	goto	l1549
   949   007B2A  EF52  F03D         	goto	l1559
   950   007B2E                     l1821:
   951                           
   952                           ; Switch size 1, requested type "simple"
   953                           ; Number of cases is 1, Range of values is 177 to 177
   954                           ; switch strategies available:
   955                           ; Name         Instructions Cycles
   956                           ; simple_byte            4     3 (average)
   957                           ;	Chosen strategy is simple_byte
   958   007B2E  5005               	movf	??_UART_select_baud^0,w,c
   959   007B30  0AB1               	xorlw	177	; case 177
   960   007B32  B4D8               	btfsc	status,2,c
   961   007B34  EF3A  F03D         	goto	l1551
   962   007B38  EF52  F03D         	goto	l1559
   963   007B3C                     l1823:
   964                           
   965                           ; Switch size 1, requested type "simple"
   966                           ; Number of cases is 1, Range of values is 0 to 0
   967                           ; switch strategies available:
   968                           ; Name         Instructions Cycles
   969                           ; simple_byte            4     3 (average)
   970                           ;	Chosen strategy is simple_byte
   971   007B3C  5005               	movf	??_UART_select_baud^0,w,c
   972   007B3E  0A00               	xorlw	0	; case 0
   973   007B40  B4D8               	btfsc	status,2,c
   974   007B42  EF40  F03D         	goto	l1553
   975   007B46  EF52  F03D         	goto	l1559
   976   007B4A                     l1825:
   977                           
   978                           ; Switch size 1, requested type "simple"
   979                           ; Number of cases is 1, Range of values is 0 to 0
   980                           ; switch strategies available:
   981                           ; Name         Instructions Cycles
   982                           ; simple_byte            4     3 (average)
   983                           ;	Chosen strategy is simple_byte
   984   007B4A  5005               	movf	??_UART_select_baud^0,w,c
   985   007B4C  0A00               	xorlw	0	; case 0
   986   007B4E  B4D8               	btfsc	status,2,c
   987   007B50  EF46  F03D         	goto	l1555
   988   007B54  EF52  F03D         	goto	l1559
   989   007B58                     l1811:
   990                           
   991                           ; Switch on 2 bytes has been partitioned into a top level switch of size 1, and 1 sub-sw
      +                          itches
   992                           ; Switch size 1, requested type "simple"
   993                           ; Number of cases is 1, Range of values is 194 to 194
   994                           ; switch strategies available:
   995                           ; Name         Instructions Cycles
   996                           ; simple_byte            4     3 (average)
   997                           ;	Chosen strategy is simple_byte
   998   007B58  5006               	movf	(??_UART_select_baud+1)^0,w,c
   999   007B5A  0AC2               	xorlw	194	; case 194
  1000   007B5C  B4D8               	btfsc	status,2,c
  1001   007B5E  EFB3  F03D         	goto	l1827
  1002   007B62  EF52  F03D         	goto	l1559
  1003   007B66                     l1827:
  1004                           
  1005                           ; Switch size 1, requested type "simple"
  1006                           ; Number of cases is 1, Range of values is 0 to 0
  1007                           ; switch strategies available:
  1008                           ; Name         Instructions Cycles
  1009                           ; simple_byte            4     3 (average)
  1010                           ;	Chosen strategy is simple_byte
  1011   007B66  5005               	movf	??_UART_select_baud^0,w,c
  1012   007B68  0A00               	xorlw	0	; case 0
  1013   007B6A  B4D8               	btfsc	status,2,c
  1014   007B6C  EF4C  F03D         	goto	l1557
  1015   007B70  EF52  F03D         	goto	l1559
  1016   007B74                     l1813:
  1017                           
  1018                           ; Switch size 1, requested type "simple"
  1019                           ; Number of cases is 2, Range of values is 0 to 1
  1020                           ; switch strategies available:
  1021                           ; Name         Instructions Cycles
  1022                           ; simple_byte            7     4 (average)
  1023                           ;	Chosen strategy is simple_byte
  1024   007B74  5007               	movf	(??_UART_select_baud+2)^0,w,c
  1025   007B76  0A00               	xorlw	0	; case 0
  1026   007B78  B4D8               	btfsc	status,2,c
  1027   007B7A  EF67  F03D         	goto	l1809
  1028   007B7E  0A01               	xorlw	1	; case 1
  1029   007B80  B4D8               	btfsc	status,2,c
  1030   007B82  EFAC  F03D         	goto	l1811
  1031   007B86  EF52  F03D         	goto	l1559
  1032   007B8A                     l103:
  1033   007B8A  0012               	return		;funcret
  1034   007B8C                     __end_of_UART_select_baud:
  1035                           	callstack 0
  1036                           
  1037 ;; *************** function _UART_config_show *****************
  1038 ;; Defined at:
  1039 ;;		line 5 in file "librerias/UART.c"
  1040 ;; Parameters:    Size  Location     Type
  1041 ;;		None
  1042 ;; Auto vars:     Size  Location     Type
  1043 ;;		None
  1044 ;; Return value:  Size  Location     Type
  1045 ;;                  1    wreg      void 
  1046 ;; Registers used:
  1047 ;;		wreg, fsr1l, fsr1h, fsr2l, fsr2h, status,2, status,0, tblptrl, tblptrh, tblptru, cstack
  1048 ;; Tracked objects:
  1049 ;;		On entry : 0/0
  1050 ;;		On exit  : 0/0
  1051 ;;		Unchanged: 0/0
  1052 ;; Data sizes:     COMRAM   BANK0   BANK1   BANK2   BANK3   BANK4   BANK5   BANK6   BANK7
  1053 ;;      Params:         0       0       0       0       0       0       0       0       0
  1054 ;;      Locals:         0       0       0       0       0       0       0       0       0
  1055 ;;      Temps:          0       0       0       0       0       0       0       0       0
  1056 ;;      Totals:         0       0       0       0       0       0       0       0       0
  1057 ;;Total ram usage:        0 bytes
  1058 ;; Hardware stack levels used: 1
  1059 ;; Hardware stack levels required when called: 6
  1060 ;; This function calls:
  1061 ;;		_printf
  1062 ;; This function is called by:
  1063 ;;		_UART_Init
  1064 ;; This function uses a non-reentrant model
  1065 ;;
  1066                           
  1067                           	psect	text3
  1068   007B8C                     __ptext3:
  1069                           	callstack 0
  1070   007B8C                     _UART_config_show:
  1071                           	callstack 23
  1072   007B8C                     
  1073                           ;librerias/UART.c: 6:     printf("Modo: ");
  1074   007B8C  0EF7               	movlw	low STR_1
  1075   007B8E  6E17               	movwf	printf@fmt^0,c
  1076   007B90  0E7F               	movlw	high STR_1
  1077   007B92  6E18               	movwf	(printf@fmt+1)^0,c
  1078   007B94  EC17  F03B         	call	_printf	;wreg free
  1079   007B98                     
  1080                           ;librerias/UART.c: 7:     (SYNC1) ? printf("Sincrono "):printf("Asincrono ");
  1081   007B98  A8AC               	btfss	4012,4,c	;volatile
  1082   007B9A  EFD1  F03D         	goto	u671
  1083   007B9E  EFD3  F03D         	goto	u670
  1084   007BA2                     u671:
  1085   007BA2  EFDB  F03D         	goto	l1511
  1086   007BA6                     u670:
  1087   007BA6  0ECB               	movlw	low STR_2
  1088   007BA8  6E17               	movwf	printf@fmt^0,c
  1089   007BAA  0E7F               	movlw	high STR_2
  1090   007BAC  6E18               	movwf	(printf@fmt+1)^0,c
  1091   007BAE  EC17  F03B         	call	_printf	;wreg free
  1092   007BB2  EFE1  F03D         	goto	l1513
  1093   007BB6                     l1511:
  1094   007BB6  0EB6               	movlw	low STR_3
  1095   007BB8  6E17               	movwf	printf@fmt^0,c
  1096   007BBA  0E7F               	movlw	high STR_3
  1097   007BBC  6E18               	movwf	(printf@fmt+1)^0,c
  1098   007BBE  EC17  F03B         	call	_printf	;wreg free
  1099   007BC2                     l1513:
  1100                           
  1101                           ;librerias/UART.c: 8:     (BRGH1) ? printf("alta velocidad \r\n"):printf("baja velocidad
      +                           \r\n");
  1102   007BC2  A4AC               	btfss	4012,2,c	;volatile
  1103   007BC4  EFE6  F03D         	goto	u681
  1104   007BC8  EFE8  F03D         	goto	u680
  1105   007BCC                     u681:
  1106   007BCC  EFF0  F03D         	goto	l1517
  1107   007BD0                     u680:
  1108   007BD0  0E62               	movlw	low STR_4
  1109   007BD2  6E17               	movwf	printf@fmt^0,c
  1110   007BD4  0E7F               	movlw	high STR_4
  1111   007BD6  6E18               	movwf	(printf@fmt+1)^0,c
  1112   007BD8  EC17  F03B         	call	_printf	;wreg free
  1113   007BDC  EFF6  F03D         	goto	l70
  1114   007BE0                     l1517:
  1115   007BE0  0E50               	movlw	low STR_5
  1116   007BE2  6E17               	movwf	printf@fmt^0,c
  1117   007BE4  0E7F               	movlw	high STR_5
  1118   007BE6  6E18               	movwf	(printf@fmt+1)^0,c
  1119   007BE8  EC17  F03B         	call	_printf	;wreg free
  1120   007BEC                     l70:
  1121                           
  1122                           ;librerias/UART.c: 9:     printf("Baudrate: ");
  1123   007BEC  0EA0               	movlw	low STR_6
  1124   007BEE  6E17               	movwf	printf@fmt^0,c
  1125   007BF0  0E7F               	movlw	high STR_6
  1126   007BF2  6E18               	movwf	(printf@fmt+1)^0,c
  1127   007BF4  EC17  F03B         	call	_printf	;wreg free
  1128   007BF8                     
  1129                           ;librerias/UART.c: 10:     (BRG161) ? printf("16 bits "):printf("8 bits ");
  1130   007BF8  A6B8               	btfss	4024,3,c	;volatile
  1131   007BFA  EF01  F03E         	goto	u691
  1132   007BFE  EF03  F03E         	goto	u690
  1133   007C02                     u691:
  1134   007C02  EF0B  F03E         	goto	l1523
  1135   007C06                     u690:
  1136   007C06  0EDE               	movlw	low STR_7
  1137   007C08  6E17               	movwf	printf@fmt^0,c
  1138   007C0A  0E7F               	movlw	high STR_7
  1139   007C0C  6E18               	movwf	(printf@fmt+1)^0,c
  1140   007C0E  EC17  F03B         	call	_printf	;wreg free
  1141   007C12  EF11  F03E         	goto	l74
  1142   007C16                     l1523:
  1143   007C16  0EEF               	movlw	low STR_8
  1144   007C18  6E17               	movwf	printf@fmt^0,c
  1145   007C1A  0E7F               	movlw	high STR_8
  1146   007C1C  6E18               	movwf	(printf@fmt+1)^0,c
  1147   007C1E  EC17  F03B         	call	_printf	;wreg free
  1148   007C22                     l74:
  1149                           
  1150                           ;librerias/UART.c: 11:     printf("x baudios \r\n");
  1151   007C22  0E93               	movlw	low STR_9
  1152   007C24  6E17               	movwf	printf@fmt^0,c
  1153   007C26  0E7F               	movlw	high STR_9
  1154   007C28  6E18               	movwf	(printf@fmt+1)^0,c
  1155   007C2A  EC17  F03B         	call	_printf	;wreg free
  1156                           
  1157                           ;librerias/UART.c: 12:     printf("Puerto: ");
  1158   007C2E  0ED5               	movlw	low STR_10
  1159   007C30  6E17               	movwf	printf@fmt^0,c
  1160   007C32  0E7F               	movlw	high STR_10
  1161   007C34  6E18               	movwf	(printf@fmt+1)^0,c
  1162   007C36  EC17  F03B         	call	_printf	;wreg free
  1163   007C3A                     
  1164                           ;librerias/UART.c: 13:     (SPEN) ? printf("Habilitado \r\n"):printf("Deshabilitado \r\n
      +                          ");
  1165   007C3A  AEAB               	btfss	4011,7,c	;volatile
  1166   007C3C  EF22  F03E         	goto	u701
  1167   007C40  EF24  F03E         	goto	u700
  1168   007C44                     u701:
  1169   007C44  EF2C  F03E         	goto	l1529
  1170   007C48                     u700:
  1171   007C48  0E85               	movlw	low STR_11
  1172   007C4A  6E17               	movwf	printf@fmt^0,c
  1173   007C4C  0E7F               	movlw	high STR_11
  1174   007C4E  6E18               	movwf	(printf@fmt+1)^0,c
  1175   007C50  EC17  F03B         	call	_printf	;wreg free
  1176   007C54  EF32  F03E         	goto	l78
  1177   007C58                     l1529:
  1178   007C58  0E74               	movlw	low STR_12
  1179   007C5A  6E17               	movwf	printf@fmt^0,c
  1180   007C5C  0E7F               	movlw	high STR_12
  1181   007C5E  6E18               	movwf	(printf@fmt+1)^0,c
  1182   007C60  EC17  F03B         	call	_printf	;wreg free
  1183   007C64                     l78:
  1184                           
  1185                           ;librerias/UART.c: 14:     printf("Transor: ");
  1186   007C64  0EC1               	movlw	low STR_13
  1187   007C66  6E17               	movwf	printf@fmt^0,c
  1188   007C68  0E7F               	movlw	high STR_13
  1189   007C6A  6E18               	movwf	(printf@fmt+1)^0,c
  1190   007C6C  EC17  F03B         	call	_printf	;wreg free
  1191   007C70                     
  1192                           ;librerias/UART.c: 15:     (TXEN1) ? printf("Habilitado \r\n"):printf("Deshabilitado \r\
      +                          n");
  1193   007C70  AAAC               	btfss	4012,5,c	;volatile
  1194   007C72  EF3D  F03E         	goto	u711
  1195   007C76  EF3F  F03E         	goto	u710
  1196   007C7A                     u711:
  1197   007C7A  EF47  F03E         	goto	l1535
  1198   007C7E                     u710:
  1199   007C7E  0E85               	movlw	low STR_11
  1200   007C80  6E17               	movwf	printf@fmt^0,c
  1201   007C82  0E7F               	movlw	high STR_11
  1202   007C84  6E18               	movwf	(printf@fmt+1)^0,c
  1203   007C86  EC17  F03B         	call	_printf	;wreg free
  1204   007C8A  EF4D  F03E         	goto	l82
  1205   007C8E                     l1535:
  1206   007C8E  0E74               	movlw	low STR_12
  1207   007C90  6E17               	movwf	printf@fmt^0,c
  1208   007C92  0E7F               	movlw	high STR_12
  1209   007C94  6E18               	movwf	(printf@fmt+1)^0,c
  1210   007C96  EC17  F03B         	call	_printf	;wreg free
  1211   007C9A                     l82:
  1212                           
  1213                           ;librerias/UART.c: 16:     printf("Receptor: ");
  1214   007C9A  0EAB               	movlw	low STR_16
  1215   007C9C  6E17               	movwf	printf@fmt^0,c
  1216   007C9E  0E7F               	movlw	high STR_16
  1217   007CA0  6E18               	movwf	(printf@fmt+1)^0,c
  1218   007CA2  EC17  F03B         	call	_printf	;wreg free
  1219   007CA6                     
  1220                           ;librerias/UART.c: 17:     (CREN) ? printf("Habilitado \r\n"):printf("Deshabilitado \r\n
      +                          ");
  1221   007CA6  A8AB               	btfss	4011,4,c	;volatile
  1222   007CA8  EF58  F03E         	goto	u721
  1223   007CAC  EF5A  F03E         	goto	u720
  1224   007CB0                     u721:
  1225   007CB0  EF62  F03E         	goto	l1541
  1226   007CB4                     u720:
  1227   007CB4  0E85               	movlw	low STR_11
  1228   007CB6  6E17               	movwf	printf@fmt^0,c
  1229   007CB8  0E7F               	movlw	high STR_11
  1230   007CBA  6E18               	movwf	(printf@fmt+1)^0,c
  1231   007CBC  EC17  F03B         	call	_printf	;wreg free
  1232   007CC0  EF68  F03E         	goto	l87
  1233   007CC4                     l1541:
  1234   007CC4  0E74               	movlw	low STR_12
  1235   007CC6  6E17               	movwf	printf@fmt^0,c
  1236   007CC8  0E7F               	movlw	high STR_12
  1237   007CCA  6E18               	movwf	(printf@fmt+1)^0,c
  1238   007CCC  EC17  F03B         	call	_printf	;wreg free
  1239   007CD0                     l87:
  1240   007CD0  0012               	return		;funcret
  1241   007CD2                     __end_of_UART_config_show:
  1242                           	callstack 0
  1243                           
  1244 ;; *************** function _SPI_write *****************
  1245 ;; Defined at:
  1246 ;;		line 29 in file "librerias/SPI.c"
  1247 ;; Parameters:    Size  Location     Type
  1248 ;;  dato            1    wreg     unsigned char 
  1249 ;; Auto vars:     Size  Location     Type
  1250 ;;  dato            1    0[COMRAM] unsigned char 
  1251 ;; Return value:  Size  Location     Type
  1252 ;;                  1    wreg      void 
  1253 ;; Registers used:
  1254 ;;		wreg
  1255 ;; Tracked objects:
  1256 ;;		On entry : 0/0
  1257 ;;		On exit  : 0/0
  1258 ;;		Unchanged: 0/0
  1259 ;; Data sizes:     COMRAM   BANK0   BANK1   BANK2   BANK3   BANK4   BANK5   BANK6   BANK7
  1260 ;;      Params:         0       0       0       0       0       0       0       0       0
  1261 ;;      Locals:         1       0       0       0       0       0       0       0       0
  1262 ;;      Temps:          0       0       0       0       0       0       0       0       0
  1263 ;;      Totals:         1       0       0       0       0       0       0       0       0
  1264 ;;Total ram usage:        1 bytes
  1265 ;; Hardware stack levels used: 1
  1266 ;; This function calls:
  1267 ;;		Nothing
  1268 ;; This function is called by:
  1269 ;;		_main
  1270 ;; This function uses a non-reentrant model
  1271 ;;
  1272                           
  1273                           	psect	text4
  1274   0075F0                     __ptext4:
  1275                           	callstack 0
  1276   0075F0                     _SPI_write:
  1277                           	callstack 30
  1278                           
  1279                           ;incstack = 0
  1280                           ;SPI_write@dato stored from wreg
  1281   0075F0  6E01               	movwf	SPI_write@dato^0,c
  1282   0075F2                     
  1283                           ;librerias/SPI.c: 30:     SSPBUF = dato;
  1284   0075F2  C001  FFC9         	movff	SPI_write@dato,4041	;volatile
  1285   0075F6  0012               	return		;funcret
  1286   0075F8                     __end_of_SPI_write:
  1287                           	callstack 0
  1288                           
  1289 ;; *************** function _SPI_master_init *****************
  1290 ;; Defined at:
  1291 ;;		line 3 in file "librerias/SPI.c"
  1292 ;; Parameters:    Size  Location     Type
  1293 ;;		None
  1294 ;; Auto vars:     Size  Location     Type
  1295 ;;		None
  1296 ;; Return value:  Size  Location     Type
  1297 ;;                  1    wreg      void 
  1298 ;; Registers used:
  1299 ;;		wreg, fsr1l, fsr1h, fsr2l, fsr2h, status,2, status,0, tblptrl, tblptrh, tblptru, cstack
  1300 ;; Tracked objects:
  1301 ;;		On entry : 0/0
  1302 ;;		On exit  : 0/0
  1303 ;;		Unchanged: 0/0
  1304 ;; Data sizes:     COMRAM   BANK0   BANK1   BANK2   BANK3   BANK4   BANK5   BANK6   BANK7
  1305 ;;      Params:         0       0       0       0       0       0       0       0       0
  1306 ;;      Locals:         0       0       0       0       0       0       0       0       0
  1307 ;;      Temps:          0       0       0       0       0       0       0       0       0
  1308 ;;      Totals:         0       0       0       0       0       0       0       0       0
  1309 ;;Total ram usage:        0 bytes
  1310 ;; Hardware stack levels used: 1
  1311 ;; Hardware stack levels required when called: 8
  1312 ;; This function calls:
  1313 ;;		_SPI_BaudRateGen
  1314 ;; This function is called by:
  1315 ;;		_main
  1316 ;;		_SPI_master_reset
  1317 ;; This function uses a non-reentrant model
  1318 ;;
  1319                           
  1320                           	psect	text5
  1321   007676                     __ptext5:
  1322                           	callstack 0
  1323   007676                     _SPI_master_init:
  1324                           	callstack 22
  1325   007676                     
  1326                           ;librerias/SPI.c: 4:     SPI_BaudRateGen(100000);
  1327   007676  0EA0               	movlw	160
  1328   007678  6E1D               	movwf	SPI_BaudRateGen@FClock^0,c
  1329   00767A  0E86               	movlw	134
  1330   00767C  6E1E               	movwf	(SPI_BaudRateGen@FClock+1)^0,c
  1331   00767E  0E01               	movlw	1
  1332   007680  6E1F               	movwf	(SPI_BaudRateGen@FClock+2)^0,c
  1333   007682  0E00               	movlw	0
  1334   007684  6E20               	movwf	(SPI_BaudRateGen@FClock+3)^0,c
  1335   007686  ECF9  F03B         	call	_SPI_BaudRateGen	;wreg free
  1336   00768A                     
  1337                           ;librerias/SPI.c: 5:     TRISAbits.RA5 = 1;
  1338   00768A  8A92               	bsf	146,5,c	;volatile
  1339   00768C                     
  1340                           ;librerias/SPI.c: 6:     TRISBbits.RB0 = 1;
  1341   00768C  8093               	bsf	147,0,c	;volatile
  1342   00768E                     
  1343                           ;librerias/SPI.c: 7:     TRISBbits.RB1 = 0;
  1344   00768E  9293               	bcf	147,1,c	;volatile
  1345   007690                     
  1346                           ;librerias/SPI.c: 8:     TRISBbits.RB3 = 0;
  1347   007690  9693               	bcf	147,3,c	;volatile
  1348   007692                     
  1349                           ;librerias/SPI.c: 9:     SSPCON1bits.SSPM = 10;
  1350   007692  50C6               	movf	198,w,c	;volatile
  1351   007694  0BF0               	andlw	-16
  1352   007696  090A               	iorlw	10
  1353   007698  6EC6               	movwf	198,c	;volatile
  1354   00769A  8AC6               	bsf	4038,5,c	;volatile
  1355   00769C  98C6               	bcf	198,4,c	;volatile
  1356   00769E  88C6               	bsf	198,4,c	;volatile
  1357   0076A0  0012               	return		;funcret
  1358   0076A2                     __end_of_SPI_master_init:
  1359                           	callstack 0
  1360                           
  1361 ;; *************** function _SPI_BaudRateGen *****************
  1362 ;; Defined at:
  1363 ;;		line 15 in file "librerias/SPI.c"
  1364 ;; Parameters:    Size  Location     Type
  1365 ;;  FClock          4   28[COMRAM] long 
  1366 ;; Auto vars:     Size  Location     Type
  1367 ;;  baudReg         4   36[COMRAM] unsigned long 
  1368 ;; Return value:  Size  Location     Type
  1369 ;;                  1    wreg      void 
  1370 ;; Registers used:
  1371 ;;		wreg, fsr1l, fsr1h, fsr2l, fsr2h, status,2, status,0, tblptrl, tblptrh, tblptru, cstack
  1372 ;; Tracked objects:
  1373 ;;		On entry : 0/0
  1374 ;;		On exit  : 0/0
  1375 ;;		Unchanged: 0/0
  1376 ;; Data sizes:     COMRAM   BANK0   BANK1   BANK2   BANK3   BANK4   BANK5   BANK6   BANK7
  1377 ;;      Params:         4       0       0       0       0       0       0       0       0
  1378 ;;      Locals:         4       0       0       0       0       0       0       0       0
  1379 ;;      Temps:          4       0       0       0       0       0       0       0       0
  1380 ;;      Totals:        12       0       0       0       0       0       0       0       0
  1381 ;;Total ram usage:       12 bytes
  1382 ;; Hardware stack levels used: 1
  1383 ;; Hardware stack levels required when called: 7
  1384 ;; This function calls:
  1385 ;;		_SPI_ErrorHandler
  1386 ;;		___aldiv
  1387 ;; This function is called by:
  1388 ;;		_SPI_master_init
  1389 ;; This function uses a non-reentrant model
  1390 ;;
  1391                           
  1392                           	psect	text6
  1393   0077F2                     __ptext6:
  1394                           	callstack 0
  1395   0077F2                     _SPI_BaudRateGen:
  1396                           	callstack 22
  1397   0077F2                     
  1398                           ;librerias/SPI.c: 16:     uint32_t baudReg = (48000000 / (FClock * 4)) - 1;
  1399   0077F2  0E00               	movlw	0
  1400   0077F4  6E01               	movwf	___aldiv@dividend^0,c
  1401   0077F6  0E6C               	movlw	108
  1402   0077F8  6E02               	movwf	(___aldiv@dividend+1)^0,c
  1403   0077FA  0EDC               	movlw	220
  1404   0077FC  6E03               	movwf	(___aldiv@dividend+2)^0,c
  1405   0077FE  0E02               	movlw	2
  1406   007800  6E04               	movwf	(___aldiv@dividend+3)^0,c
  1407   007802  C01D  F021         	movff	SPI_BaudRateGen@FClock,??_SPI_BaudRateGen
  1408   007806  C01E  F022         	movff	SPI_BaudRateGen@FClock+1,??_SPI_BaudRateGen+1
  1409   00780A  C01F  F023         	movff	SPI_BaudRateGen@FClock+2,??_SPI_BaudRateGen+2
  1410   00780E  C020  F024         	movff	SPI_BaudRateGen@FClock+3,??_SPI_BaudRateGen+3
  1411   007812  0E02               	movlw	2
  1412   007814                     u735:
  1413   007814  90D8               	bcf	status,0,c
  1414   007816  3621               	rlcf	??_SPI_BaudRateGen^0,f,c
  1415   007818  3622               	rlcf	(??_SPI_BaudRateGen+1)^0,f,c
  1416   00781A  3623               	rlcf	(??_SPI_BaudRateGen+2)^0,f,c
  1417   00781C  3624               	rlcf	(??_SPI_BaudRateGen+3)^0,f,c
  1418   00781E  2EE8               	decfsz	wreg,f,c
  1419   007820  EF0A  F03C         	goto	u735
  1420   007824  C021  F005         	movff	??_SPI_BaudRateGen,___aldiv@divisor
  1421   007828  C022  F006         	movff	??_SPI_BaudRateGen+1,___aldiv@divisor+1
  1422   00782C  C023  F007         	movff	??_SPI_BaudRateGen+2,___aldiv@divisor+2
  1423   007830  C024  F008         	movff	??_SPI_BaudRateGen+3,___aldiv@divisor+3
  1424   007834  ECA0  F03C         	call	___aldiv	;wreg free
  1425   007838  0EFF               	movlw	255
  1426   00783A  2401               	addwf	?___aldiv^0,w,c
  1427   00783C  6E25               	movwf	SPI_BaudRateGen@baudReg^0,c
  1428   00783E  0EFF               	movlw	255
  1429   007840  2002               	addwfc	(?___aldiv+1)^0,w,c
  1430   007842  6E26               	movwf	(SPI_BaudRateGen@baudReg+1)^0,c
  1431   007844  0EFF               	movlw	255
  1432   007846  2003               	addwfc	(?___aldiv+2)^0,w,c
  1433   007848  6E27               	movwf	(SPI_BaudRateGen@baudReg+2)^0,c
  1434   00784A  0EFF               	movlw	255
  1435   00784C  2004               	addwfc	(?___aldiv+3)^0,w,c
  1436   00784E  6E28               	movwf	(SPI_BaudRateGen@baudReg+3)^0,c
  1437   007850                     
  1438                           ;librerias/SPI.c: 17:     if(baudReg > 0xFF){
  1439   007850  5028               	movf	(SPI_BaudRateGen@baudReg+3)^0,w,c
  1440   007852  1027               	iorwf	(SPI_BaudRateGen@baudReg+2)^0,w,c
  1441   007854  E108               	bnz	u740
  1442   007856  0426               	decf	(SPI_BaudRateGen@baudReg+1)^0,w,c
  1443   007858  A0D8               	btfss	status,0,c
  1444   00785A  EF31  F03C         	goto	u741
  1445   00785E  EF33  F03C         	goto	u740
  1446   007862                     u741:
  1447   007862  EF38  F03C         	goto	l192
  1448   007866                     u740:
  1449   007866                     
  1450                           ;librerias/SPI.c: 18:         SPI_ErrorHandler(ERROR_CODE_SPI_BR_OVERRANGE);
  1451   007866  0E01               	movlw	1
  1452   007868  EC8D  F03B         	call	_SPI_ErrorHandler
  1453   00786C  EF3A  F03C         	goto	l193
  1454   007870                     l192:
  1455                           
  1456                           ;librerias/SPI.c: 21:     SSP1ADD = baudReg;
  1457   007870  C025  FFC8         	movff	SPI_BaudRateGen@baudReg,4040	;volatile
  1458   007874                     l193:
  1459   007874  0012               	return		;funcret
  1460   007876                     __end_of_SPI_BaudRateGen:
  1461                           	callstack 0
  1462                           
  1463 ;; *************** function ___aldiv *****************
  1464 ;; Defined at:
  1465 ;;		line 7 in file "C:\Program Files\Microchip\xc8\v2.46\pic\sources\c99\common\aldiv.c"
  1466 ;; Parameters:    Size  Location     Type
  1467 ;;  dividend        4    0[COMRAM] long 
  1468 ;;  divisor         4    4[COMRAM] long 
  1469 ;; Auto vars:     Size  Location     Type
  1470 ;;  quotient        4   10[COMRAM] long 
  1471 ;;  sign            1    9[COMRAM] unsigned char 
  1472 ;;  counter         1    8[COMRAM] unsigned char 
  1473 ;; Return value:  Size  Location     Type
  1474 ;;                  4    0[COMRAM] long 
  1475 ;; Registers used:
  1476 ;;		wreg, status,2, status,0
  1477 ;; Tracked objects:
  1478 ;;		On entry : 0/0
  1479 ;;		On exit  : 0/0
  1480 ;;		Unchanged: 0/0
  1481 ;; Data sizes:     COMRAM   BANK0   BANK1   BANK2   BANK3   BANK4   BANK5   BANK6   BANK7
  1482 ;;      Params:         8       0       0       0       0       0       0       0       0
  1483 ;;      Locals:         6       0       0       0       0       0       0       0       0
  1484 ;;      Temps:          0       0       0       0       0       0       0       0       0
  1485 ;;      Totals:        14       0       0       0       0       0       0       0       0
  1486 ;;Total ram usage:       14 bytes
  1487 ;; Hardware stack levels used: 1
  1488 ;; This function calls:
  1489 ;;		Nothing
  1490 ;; This function is called by:
  1491 ;;		_SPI_BaudRateGen
  1492 ;; This function uses a non-reentrant model
  1493 ;;
  1494                           
  1495                           	psect	text7
  1496   007940                     __ptext7:
  1497                           	callstack 0
  1498   007940                     ___aldiv:
  1499                           	callstack 28
  1500   007940  0E00               	movlw	0
  1501   007942  6E0A               	movwf	___aldiv@sign^0,c
  1502   007944  BE08               	btfsc	(___aldiv@divisor+3)^0,7,c
  1503   007946  EFA9  F03C         	goto	u610
  1504   00794A  EFA7  F03C         	goto	u611
  1505   00794E                     u611:
  1506   00794E  EFB3  F03C         	goto	l1469
  1507   007952                     u610:
  1508   007952  1E08               	comf	(___aldiv@divisor+3)^0,f,c
  1509   007954  1E07               	comf	(___aldiv@divisor+2)^0,f,c
  1510   007956  1E06               	comf	(___aldiv@divisor+1)^0,f,c
  1511   007958  6C05               	negf	___aldiv@divisor^0,c
  1512   00795A  0E00               	movlw	0
  1513   00795C  2206               	addwfc	(___aldiv@divisor+1)^0,f,c
  1514   00795E  2207               	addwfc	(___aldiv@divisor+2)^0,f,c
  1515   007960  2208               	addwfc	(___aldiv@divisor+3)^0,f,c
  1516   007962  0E01               	movlw	1
  1517   007964  6E0A               	movwf	___aldiv@sign^0,c
  1518   007966                     l1469:
  1519   007966  BE04               	btfsc	(___aldiv@dividend+3)^0,7,c
  1520   007968  EFBA  F03C         	goto	u620
  1521   00796C  EFB8  F03C         	goto	u621
  1522   007970                     u621:
  1523   007970  EFC4  F03C         	goto	l1475
  1524   007974                     u620:
  1525   007974  1E04               	comf	(___aldiv@dividend+3)^0,f,c
  1526   007976  1E03               	comf	(___aldiv@dividend+2)^0,f,c
  1527   007978  1E02               	comf	(___aldiv@dividend+1)^0,f,c
  1528   00797A  6C01               	negf	___aldiv@dividend^0,c
  1529   00797C  0E00               	movlw	0
  1530   00797E  2202               	addwfc	(___aldiv@dividend+1)^0,f,c
  1531   007980  2203               	addwfc	(___aldiv@dividend+2)^0,f,c
  1532   007982  2204               	addwfc	(___aldiv@dividend+3)^0,f,c
  1533   007984  0E01               	movlw	1
  1534   007986  1A0A               	xorwf	___aldiv@sign^0,f,c
  1535   007988                     l1475:
  1536   007988  0E00               	movlw	0
  1537   00798A  6E0B               	movwf	___aldiv@quotient^0,c
  1538   00798C  0E00               	movlw	0
  1539   00798E  6E0C               	movwf	(___aldiv@quotient+1)^0,c
  1540   007990  0E00               	movlw	0
  1541   007992  6E0D               	movwf	(___aldiv@quotient+2)^0,c
  1542   007994  0E00               	movlw	0
  1543   007996  6E0E               	movwf	(___aldiv@quotient+3)^0,c
  1544   007998  5005               	movf	___aldiv@divisor^0,w,c
  1545   00799A  1006               	iorwf	(___aldiv@divisor+1)^0,w,c
  1546   00799C  1007               	iorwf	(___aldiv@divisor+2)^0,w,c
  1547   00799E  1008               	iorwf	(___aldiv@divisor+3)^0,w,c
  1548   0079A0  B4D8               	btfsc	status,2,c
  1549   0079A2  EFD5  F03C         	goto	u631
  1550   0079A6  EFD7  F03C         	goto	u630
  1551   0079AA                     u631:
  1552   0079AA  EF0D  F03D         	goto	l1497
  1553   0079AE                     u630:
  1554   0079AE  0E01               	movlw	1
  1555   0079B0  6E09               	movwf	___aldiv@counter^0,c
  1556   0079B2  EFE1  F03C         	goto	l1483
  1557   0079B6                     l1481:
  1558   0079B6  90D8               	bcf	status,0,c
  1559   0079B8  3605               	rlcf	___aldiv@divisor^0,f,c
  1560   0079BA  3606               	rlcf	(___aldiv@divisor+1)^0,f,c
  1561   0079BC  3607               	rlcf	(___aldiv@divisor+2)^0,f,c
  1562   0079BE  3608               	rlcf	(___aldiv@divisor+3)^0,f,c
  1563   0079C0  2A09               	incf	___aldiv@counter^0,f,c
  1564   0079C2                     l1483:
  1565   0079C2  AE08               	btfss	(___aldiv@divisor+3)^0,7,c
  1566   0079C4  EFE6  F03C         	goto	u641
  1567   0079C8  EFE8  F03C         	goto	u640
  1568   0079CC                     u641:
  1569   0079CC  EFDB  F03C         	goto	l1481
  1570   0079D0                     u640:
  1571   0079D0                     l1485:
  1572   0079D0  90D8               	bcf	status,0,c
  1573   0079D2  360B               	rlcf	___aldiv@quotient^0,f,c
  1574   0079D4  360C               	rlcf	(___aldiv@quotient+1)^0,f,c
  1575   0079D6  360D               	rlcf	(___aldiv@quotient+2)^0,f,c
  1576   0079D8  360E               	rlcf	(___aldiv@quotient+3)^0,f,c
  1577   0079DA  5005               	movf	___aldiv@divisor^0,w,c
  1578   0079DC  5C01               	subwf	___aldiv@dividend^0,w,c
  1579   0079DE  5006               	movf	(___aldiv@divisor+1)^0,w,c
  1580   0079E0  5802               	subwfb	(___aldiv@dividend+1)^0,w,c
  1581   0079E2  5007               	movf	(___aldiv@divisor+2)^0,w,c
  1582   0079E4  5803               	subwfb	(___aldiv@dividend+2)^0,w,c
  1583   0079E6  5008               	movf	(___aldiv@divisor+3)^0,w,c
  1584   0079E8  5804               	subwfb	(___aldiv@dividend+3)^0,w,c
  1585   0079EA  A0D8               	btfss	status,0,c
  1586   0079EC  EFFA  F03C         	goto	u651
  1587   0079F0  EFFC  F03C         	goto	u650
  1588   0079F4                     u651:
  1589   0079F4  EF05  F03D         	goto	l1493
  1590   0079F8                     u650:
  1591   0079F8  5005               	movf	___aldiv@divisor^0,w,c
  1592   0079FA  5E01               	subwf	___aldiv@dividend^0,f,c
  1593   0079FC  5006               	movf	(___aldiv@divisor+1)^0,w,c
  1594   0079FE  5A02               	subwfb	(___aldiv@dividend+1)^0,f,c
  1595   007A00  5007               	movf	(___aldiv@divisor+2)^0,w,c
  1596   007A02  5A03               	subwfb	(___aldiv@dividend+2)^0,f,c
  1597   007A04  5008               	movf	(___aldiv@divisor+3)^0,w,c
  1598   007A06  5A04               	subwfb	(___aldiv@dividend+3)^0,f,c
  1599   007A08  800B               	bsf	___aldiv@quotient^0,0,c
  1600   007A0A                     l1493:
  1601   007A0A  90D8               	bcf	status,0,c
  1602   007A0C  3208               	rrcf	(___aldiv@divisor+3)^0,f,c
  1603   007A0E  3207               	rrcf	(___aldiv@divisor+2)^0,f,c
  1604   007A10  3206               	rrcf	(___aldiv@divisor+1)^0,f,c
  1605   007A12  3205               	rrcf	___aldiv@divisor^0,f,c
  1606   007A14  2E09               	decfsz	___aldiv@counter^0,f,c
  1607   007A16  EFE8  F03C         	goto	l1485
  1608   007A1A                     l1497:
  1609   007A1A  500A               	movf	___aldiv@sign^0,w,c
  1610   007A1C  B4D8               	btfsc	status,2,c
  1611   007A1E  EF13  F03D         	goto	u661
  1612   007A22  EF15  F03D         	goto	u660
  1613   007A26                     u661:
  1614   007A26  EF1D  F03D         	goto	l1501
  1615   007A2A                     u660:
  1616   007A2A  1E0E               	comf	(___aldiv@quotient+3)^0,f,c
  1617   007A2C  1E0D               	comf	(___aldiv@quotient+2)^0,f,c
  1618   007A2E  1E0C               	comf	(___aldiv@quotient+1)^0,f,c
  1619   007A30  6C0B               	negf	___aldiv@quotient^0,c
  1620   007A32  0E00               	movlw	0
  1621   007A34  220C               	addwfc	(___aldiv@quotient+1)^0,f,c
  1622   007A36  220D               	addwfc	(___aldiv@quotient+2)^0,f,c
  1623   007A38  220E               	addwfc	(___aldiv@quotient+3)^0,f,c
  1624   007A3A                     l1501:
  1625   007A3A  C00B  F001         	movff	___aldiv@quotient,?___aldiv
  1626   007A3E  C00C  F002         	movff	___aldiv@quotient+1,?___aldiv+1
  1627   007A42  C00D  F003         	movff	___aldiv@quotient+2,?___aldiv+2
  1628   007A46  C00E  F004         	movff	___aldiv@quotient+3,?___aldiv+3
  1629   007A4A  0012               	return		;funcret
  1630   007A4C                     __end_of___aldiv:
  1631                           	callstack 0
  1632                           
  1633 ;; *************** function _SPI_ErrorHandler *****************
  1634 ;; Defined at:
  1635 ;;		line 24 in file "librerias/variables.c"
  1636 ;; Parameters:    Size  Location     Type
  1637 ;;  errorCode       1    wreg     enum E5200
  1638 ;; Auto vars:     Size  Location     Type
  1639 ;;  errorCode       1   27[COMRAM] enum E5200
  1640 ;; Return value:  Size  Location     Type
  1641 ;;                  1    wreg      void 
  1642 ;; Registers used:
  1643 ;;		wreg, fsr1l, fsr1h, fsr2l, fsr2h, status,2, status,0, tblptrl, tblptrh, tblptru, cstack
  1644 ;; Tracked objects:
  1645 ;;		On entry : 0/0
  1646 ;;		On exit  : 0/0
  1647 ;;		Unchanged: 0/0
  1648 ;; Data sizes:     COMRAM   BANK0   BANK1   BANK2   BANK3   BANK4   BANK5   BANK6   BANK7
  1649 ;;      Params:         0       0       0       0       0       0       0       0       0
  1650 ;;      Locals:         1       0       0       0       0       0       0       0       0
  1651 ;;      Temps:          2       0       0       0       0       0       0       0       0
  1652 ;;      Totals:         3       0       0       0       0       0       0       0       0
  1653 ;;Total ram usage:        3 bytes
  1654 ;; Hardware stack levels used: 1
  1655 ;; Hardware stack levels required when called: 6
  1656 ;; This function calls:
  1657 ;;		_printf
  1658 ;; This function is called by:
  1659 ;;		_SPI_BaudRateGen
  1660 ;; This function uses a non-reentrant model
  1661 ;;
  1662                           
  1663                           	psect	text8
  1664   00771A                     __ptext8:
  1665                           	callstack 0
  1666   00771A                     _SPI_ErrorHandler:
  1667                           	callstack 22
  1668                           
  1669                           ;incstack = 0
  1670                           ;SPI_ErrorHandler@errorCode stored from wreg
  1671   00771A  6E1C               	movwf	SPI_ErrorHandler@errorCode^0,c
  1672   00771C                     
  1673                           ;librerias/variables.c: 25:     if(errorCode != ERROR_CODE_SPI_OK) return;
  1674   00771C  501C               	movf	SPI_ErrorHandler@errorCode^0,w,c
  1675   00771E  B4D8               	btfsc	status,2,c
  1676   007720  EF94  F03B         	goto	u601
  1677   007724  EF96  F03B         	goto	u600
  1678   007728                     u601:
  1679   007728  EF98  F03B         	goto	l1449
  1680   00772C                     u600:
  1681   00772C  EFBD  F03B         	goto	l217
  1682   007730                     l1449:
  1683                           
  1684                           ;librerias/variables.c: 26:     printf("Error: ");
  1685   007730  0EE7               	movlw	low STR_19
  1686   007732  6E17               	movwf	printf@fmt^0,c
  1687   007734  0E7F               	movlw	high STR_19
  1688   007736  6E18               	movwf	(printf@fmt+1)^0,c
  1689   007738  EC17  F03B         	call	_printf	;wreg free
  1690                           
  1691                           ;librerias/variables.c: 27:     switch(errorCode){
  1692   00773C  EFA8  F03B         	goto	l1455
  1693   007740                     l1451:
  1694                           
  1695                           ;librerias/variables.c: 32:             printf("ERROR_CODE_SPI_BR_OVERRANGE");
  1696   007740  0EE9               	movlw	low STR_24
  1697   007742  6E17               	movwf	printf@fmt^0,c
  1698   007744  0E7E               	movlw	high STR_24
  1699   007746  6E18               	movwf	(printf@fmt+1)^0,c
  1700   007748  EC17  F03B         	call	_printf	;wreg free
  1701                           
  1702                           ;librerias/variables.c: 33:         break;
  1703   00774C  EFBD  F03B         	goto	l217
  1704   007750                     l1455:
  1705   007750  501C               	movf	SPI_ErrorHandler@errorCode^0,w,c
  1706   007752  6E1A               	movwf	??_SPI_ErrorHandler^0,c
  1707   007754  6A1B               	clrf	(??_SPI_ErrorHandler+1)^0,c
  1708                           
  1709                           ; Switch on 2 bytes has been partitioned into a top level switch of size 1, and 1 sub-sw
      +                          itches
  1710                           ; Switch size 1, requested type "simple"
  1711                           ; Number of cases is 1, Range of values is 0 to 0
  1712                           ; switch strategies available:
  1713                           ; Name         Instructions Cycles
  1714                           ; simple_byte            4     3 (average)
  1715                           ;	Chosen strategy is simple_byte
  1716   007756  501B               	movf	(??_SPI_ErrorHandler+1)^0,w,c
  1717   007758  0A00               	xorlw	0	; case 0
  1718   00775A  B4D8               	btfsc	status,2,c
  1719   00775C  EFB2  F03B         	goto	l1829
  1720   007760  EFBD  F03B         	goto	l217
  1721   007764                     l1829:
  1722                           
  1723                           ; Switch size 1, requested type "simple"
  1724                           ; Number of cases is 2, Range of values is 0 to 1
  1725                           ; switch strategies available:
  1726                           ; Name         Instructions Cycles
  1727                           ; simple_byte            7     4 (average)
  1728                           ;	Chosen strategy is simple_byte
  1729   007764  501A               	movf	??_SPI_ErrorHandler^0,w,c
  1730   007766  0A00               	xorlw	0	; case 0
  1731   007768  B4D8               	btfsc	status,2,c
  1732   00776A  EFBD  F03B         	goto	l217
  1733   00776E  0A01               	xorlw	1	; case 1
  1734   007770  B4D8               	btfsc	status,2,c
  1735   007772  EFA0  F03B         	goto	l1451
  1736   007776  EFBD  F03B         	goto	l217
  1737   00777A                     l217:
  1738   00777A  0012               	return		;funcret
  1739   00777C                     __end_of_SPI_ErrorHandler:
  1740                           	callstack 0
  1741                           
  1742 ;; *************** function _printf *****************
  1743 ;; Defined at:
  1744 ;;		line 5 in file "C:\Program Files\Microchip\xc8\v2.46\pic\sources\c99\common\printf.c"
  1745 ;; Parameters:    Size  Location     Type
  1746 ;;  fmt             2   22[COMRAM] PTR const unsigned char 
  1747 ;;		 -> STR_24(28), STR_23(8), STR_22(26), STR_21(24), 
  1748 ;;		 -> STR_20(25), STR_19(8), STR_18(17), STR_17(14), 
  1749 ;;		 -> STR_16(11), STR_15(17), STR_14(14), STR_13(10), 
  1750 ;;		 -> STR_12(17), STR_11(14), STR_10(9), STR_9(13), 
  1751 ;;		 -> STR_8(8), STR_7(9), STR_6(11), STR_5(18), 
  1752 ;;		 -> STR_4(18), STR_3(11), STR_2(10), STR_1(7), 
  1753 ;; Auto vars:     Size  Location     Type
  1754 ;;  ret             2    0        int 
  1755 ;;  ap              1   24[COMRAM] PTR void [1]
  1756 ;;		 -> ?_printf(2), 
  1757 ;; Return value:  Size  Location     Type
  1758 ;;                  2   22[COMRAM] int 
  1759 ;; Registers used:
  1760 ;;		wreg, fsr1l, fsr1h, fsr2l, fsr2h, status,2, status,0, tblptrl, tblptrh, tblptru, cstack
  1761 ;; Tracked objects:
  1762 ;;		On entry : 0/0
  1763 ;;		On exit  : 0/0
  1764 ;;		Unchanged: 0/0
  1765 ;; Data sizes:     COMRAM   BANK0   BANK1   BANK2   BANK3   BANK4   BANK5   BANK6   BANK7
  1766 ;;      Params:         2       0       0       0       0       0       0       0       0
  1767 ;;      Locals:         1       0       0       0       0       0       0       0       0
  1768 ;;      Temps:          0       0       0       0       0       0       0       0       0
  1769 ;;      Totals:         3       0       0       0       0       0       0       0       0
  1770 ;;Total ram usage:        3 bytes
  1771 ;; Hardware stack levels used: 1
  1772 ;; Hardware stack levels required when called: 5
  1773 ;; This function calls:
  1774 ;;		_vfprintf
  1775 ;; This function is called by:
  1776 ;;		_UART_config_show
  1777 ;;		_SPI_ErrorHandler
  1778 ;;		_UART_ErrorHandler
  1779 ;; This function uses a non-reentrant model
  1780 ;;
  1781                           
  1782                           	psect	text9
  1783   00762E                     __ptext9:
  1784                           	callstack 0
  1785   00762E                     _printf:
  1786                           	callstack 23
  1787   00762E  0E19               	movlw	low (?_printf+2)
  1788   007630  6E19               	movwf	printf@ap^0,c
  1789   007632  0E00               	movlw	0
  1790   007634  6E10               	movwf	vfprintf@fp^0,c
  1791   007636  0E00               	movlw	0
  1792   007638  6E11               	movwf	(vfprintf@fp+1)^0,c
  1793   00763A  C017  F012         	movff	printf@fmt,vfprintf@fmt
  1794   00763E  C018  F013         	movff	printf@fmt+1,vfprintf@fmt+1
  1795   007642  0E19               	movlw	low printf@ap
  1796   007644  6E14               	movwf	vfprintf@ap^0,c
  1797   007646  EC6A  F03B         	call	_vfprintf	;wreg free
  1798   00764A  0012               	return		;funcret
  1799   00764C                     __end_of_printf:
  1800                           	callstack 0
  1801                           
  1802 ;; *************** function _vfprintf *****************
  1803 ;; Defined at:
  1804 ;;		line 1817 in file "C:\Program Files\Microchip\xc8\v2.46\pic\sources\c99\common\doprnt.c"
  1805 ;; Parameters:    Size  Location     Type
  1806 ;;  fp              2   15[COMRAM] PTR struct _IO_FILE
  1807 ;;		 -> NULL(0), 
  1808 ;;  fmt             2   17[COMRAM] PTR const unsigned char 
  1809 ;;		 -> STR_24(28), STR_23(8), STR_22(26), STR_21(24), 
  1810 ;;		 -> STR_20(25), STR_19(8), STR_18(17), STR_17(14), 
  1811 ;;		 -> STR_16(11), STR_15(17), STR_14(14), STR_13(10), 
  1812 ;;		 -> STR_12(17), STR_11(14), STR_10(9), STR_9(13), 
  1813 ;;		 -> STR_8(8), STR_7(9), STR_6(11), STR_5(18), 
  1814 ;;		 -> STR_4(18), STR_3(11), STR_2(10), STR_1(7), 
  1815 ;;  ap              1   19[COMRAM] PTR PTR void 
  1816 ;;		 -> printf@ap(1), 
  1817 ;; Auto vars:     Size  Location     Type
  1818 ;;  cfmt            2   20[COMRAM] PTR unsigned char 
  1819 ;;		 -> STR_24(28), STR_23(8), STR_22(26), STR_21(24), 
  1820 ;;		 -> STR_20(25), STR_19(8), STR_18(17), STR_17(14), 
  1821 ;;		 -> STR_16(11), STR_15(17), STR_14(14), STR_13(10), 
  1822 ;;		 -> STR_12(17), STR_11(14), STR_10(9), STR_9(13), 
  1823 ;;		 -> STR_8(8), STR_7(9), STR_6(11), STR_5(18), 
  1824 ;;		 -> STR_4(18), STR_3(11), STR_2(10), STR_1(7), 
  1825 ;; Return value:  Size  Location     Type
  1826 ;;                  2   15[COMRAM] int 
  1827 ;; Registers used:
  1828 ;;		wreg, fsr1l, fsr1h, fsr2l, fsr2h, status,2, status,0, tblptrl, tblptrh, tblptru, cstack
  1829 ;; Tracked objects:
  1830 ;;		On entry : 0/0
  1831 ;;		On exit  : 0/0
  1832 ;;		Unchanged: 0/0
  1833 ;; Data sizes:     COMRAM   BANK0   BANK1   BANK2   BANK3   BANK4   BANK5   BANK6   BANK7
  1834 ;;      Params:         5       0       0       0       0       0       0       0       0
  1835 ;;      Locals:         2       0       0       0       0       0       0       0       0
  1836 ;;      Temps:          0       0       0       0       0       0       0       0       0
  1837 ;;      Totals:         7       0       0       0       0       0       0       0       0
  1838 ;;Total ram usage:        7 bytes
  1839 ;; Hardware stack levels used: 1
  1840 ;; Hardware stack levels required when called: 4
  1841 ;; This function calls:
  1842 ;;		_vfpfcnvrt
  1843 ;; This function is called by:
  1844 ;;		_printf
  1845 ;; This function uses a non-reentrant model
  1846 ;;
  1847                           
  1848                           	psect	text10
  1849   0076D4                     __ptext10:
  1850                           	callstack 0
  1851   0076D4                     _vfprintf:
  1852                           	callstack 23
  1853   0076D4                     
  1854                           ;C:\Program Files\Microchip\xc8\v2.46\pic\sources\c99\common\doprnt.c: 1817: int vfprint
      +                          f(FILE *fp, const char *fmt, va_list ap);C:\Program Files\Microchip\xc8\v2.46\pic\source
      +                          s\c99\common\doprnt.c: 1818: {;C:\Program Files\Microchip\xc8\v2.46\pic\sources\c99\comm
      +                          on\doprnt.c: 1820:     char *cfmt;;C:\Program Files\Microchip\xc8\v2.46\pic\sources\c99\
      +                          common\doprnt.c: 1822:     cfmt = (char *)fmt;
  1855   0076D4  C012  F015         	movff	vfprintf@fmt,vfprintf@cfmt
  1856   0076D8  C013  F016         	movff	vfprintf@fmt+1,vfprintf@cfmt+1
  1857                           
  1858                           ;C:\Program Files\Microchip\xc8\v2.46\pic\sources\c99\common\doprnt.c: 1826:     while (
      +                          *cfmt) {
  1859   0076DC  EF7A  F03B         	goto	l1433
  1860   0076E0                     l1431:
  1861                           
  1862                           ;C:\Program Files\Microchip\xc8\v2.46\pic\sources\c99\common\doprnt.c: 1830:    vfpfcnvr
      +                          t(fp, &cfmt, ap);
  1863   0076E0  C010  F00C         	movff	vfprintf@fp,vfpfcnvrt@fp
  1864   0076E4  C011  F00D         	movff	vfprintf@fp+1,vfpfcnvrt@fp+1
  1865   0076E8  0E15               	movlw	low vfprintf@cfmt
  1866   0076EA  6E0E               	movwf	vfpfcnvrt@fmt^0,c
  1867   0076EC  C014  F00F         	movff	vfprintf@ap,vfpfcnvrt@ap
  1868   0076F0  ECBE  F03B         	call	_vfpfcnvrt	;wreg free
  1869   0076F4                     l1433:
  1870                           
  1871                           ;C:\Program Files\Microchip\xc8\v2.46\pic\sources\c99\common\doprnt.c: 1826:     while (
      +                          *cfmt) {
  1872   0076F4  C015  FFF6         	movff	vfprintf@cfmt,tblptrl
  1873   0076F8  C016  FFF7         	movff	vfprintf@cfmt+1,tblptrh
  1874   0076FC                     	if	0	;tblptru may be non-zero
  1875   0076FC                     	endif
  1876   0076FC                     	if	0	;tblptru may be non-zero
  1877   0076FC                     	endif
  1878   0076FC  0008               	tblrd		*
  1879   0076FE  50F5               	movf	tablat,w,c
  1880   007700  0900               	iorlw	0
  1881   007702  A4D8               	btfss	status,2,c
  1882   007704  EF86  F03B         	goto	u591
  1883   007708  EF88  F03B         	goto	u590
  1884   00770C                     u591:
  1885   00770C  EF70  F03B         	goto	l1431
  1886   007710                     u590:
  1887   007710                     
  1888                           ;C:\Program Files\Microchip\xc8\v2.46\pic\sources\c99\common\doprnt.c: 1835:  return 0;
  1889   007710  0E00               	movlw	0
  1890   007712  6E11               	movwf	(?_vfprintf+1)^0,c
  1891   007714  0E00               	movlw	0
  1892   007716  6E10               	movwf	?_vfprintf^0,c
  1893   007718  0012               	return		;funcret
  1894   00771A                     __end_of_vfprintf:
  1895                           	callstack 0
  1896                           
  1897 ;; *************** function _vfpfcnvrt *****************
  1898 ;; Defined at:
  1899 ;;		line 1177 in file "C:\Program Files\Microchip\xc8\v2.46\pic\sources\c99\common\doprnt.c"
  1900 ;; Parameters:    Size  Location     Type
  1901 ;;  fp              2   11[COMRAM] PTR struct _IO_FILE
  1902 ;;		 -> NULL(0), 
  1903 ;;  fmt             1   13[COMRAM] PTR PTR unsigned char 
  1904 ;;		 -> vfprintf@cfmt(2), 
  1905 ;;  ap              1   14[COMRAM] PTR PTR void 
  1906 ;;		 -> printf@ap(1), 
  1907 ;; Auto vars:     Size  Location     Type
  1908 ;;  cp              3    0        PTR unsigned char 
  1909 ;;  done            1    0        _Bool 
  1910 ;;  c               1    0        unsigned char 
  1911 ;; Return value:  Size  Location     Type
  1912 ;;                  1    wreg      void 
  1913 ;; Registers used:
  1914 ;;		wreg, fsr1l, fsr1h, fsr2l, fsr2h, status,2, status,0, tblptrl, tblptrh, tblptru, cstack
  1915 ;; Tracked objects:
  1916 ;;		On entry : 0/0
  1917 ;;		On exit  : 0/0
  1918 ;;		Unchanged: 0/0
  1919 ;; Data sizes:     COMRAM   BANK0   BANK1   BANK2   BANK3   BANK4   BANK5   BANK6   BANK7
  1920 ;;      Params:         4       0       0       0       0       0       0       0       0
  1921 ;;      Locals:         0       0       0       0       0       0       0       0       0
  1922 ;;      Temps:          0       0       0       0       0       0       0       0       0
  1923 ;;      Totals:         4       0       0       0       0       0       0       0       0
  1924 ;;Total ram usage:        4 bytes
  1925 ;; Hardware stack levels used: 1
  1926 ;; Hardware stack levels required when called: 3
  1927 ;; This function calls:
  1928 ;;		_fputc
  1929 ;; This function is called by:
  1930 ;;		_vfprintf
  1931 ;; This function uses a non-reentrant model
  1932 ;;
  1933                           
  1934                           	psect	text11
  1935   00777C                     __ptext11:
  1936                           	callstack 0
  1937   00777C                     _vfpfcnvrt:
  1938                           	callstack 23
  1939   00777C                     
  1940                           ;C:\Program Files\Microchip\xc8\v2.46\pic\sources\c99\common\doprnt.c: 1177: vfpfcnvrt(F
      +                          ILE *fp, char *fmt[], va_list ap);C:\Program Files\Microchip\xc8\v2.46\pic\sources\c99\c
      +                          ommon\doprnt.c: 1178: {;C:\Program Files\Microchip\xc8\v2.46\pic\sources\c99\common\dopr
      +                          nt.c: 1179:     char c, *cp;;C:\Program Files\Microchip\xc8\v2.46\pic\sources\c99\common
      +                          \doprnt.c: 1180:     _Bool done;;C:\Program Files\Microchip\xc8\v2.46\pic\sources\c99\co
      +                          mmon\doprnt.c: 1201:     if ((*fmt)[0] == '%') {
  1941   00777C  500E               	movf	vfpfcnvrt@fmt^0,w,c
  1942   00777E  6ED9               	movwf	fsr2l,c
  1943   007780  6ADA               	clrf	fsr2h,c
  1944   007782  CFDE FFF6          	movff	postinc2,tblptrl
  1945   007786  CFDD FFF7          	movff	postdec2,tblptrh
  1946   00778A                     	if	0	;tblptru may be non-zero
  1947   00778A                     	endif
  1948   00778A                     	if	0	;tblptru may be non-zero
  1949   00778A                     	endif
  1950   00778A  0008               	tblrd		*
  1951   00778C  50F5               	movf	tablat,w,c
  1952   00778E  0A25               	xorlw	37
  1953   007790  A4D8               	btfss	status,2,c
  1954   007792  EFCD  F03B         	goto	u581
  1955   007796  EFCF  F03B         	goto	u580
  1956   00779A                     u581:
  1957   00779A  EFE5  F03B         	goto	l1423
  1958   00779E                     u580:
  1959   00779E                     
  1960                           ;C:\Program Files\Microchip\xc8\v2.46\pic\sources\c99\common\doprnt.c: 1202:         ++*
      +                          fmt;
  1961   00779E  500E               	movf	vfpfcnvrt@fmt^0,w,c
  1962   0077A0  6ED9               	movwf	fsr2l,c
  1963   0077A2  6ADA               	clrf	fsr2h,c
  1964   0077A4  2ADE               	incf	postinc2,f,c
  1965   0077A6  0E00               	movlw	0
  1966   0077A8  22DD               	addwfc	postdec2,f,c
  1967   0077AA                     
  1968                           ;C:\Program Files\Microchip\xc8\v2.46\pic\sources\c99\common\doprnt.c: 1204:         fla
      +                          gs = width = 0;
  1969   0077AA  0E00               	movlw	0
  1970   0077AC  6E4A               	movwf	(_width+1)^0,c
  1971   0077AE  0E00               	movlw	0
  1972   0077B0  6E49               	movwf	_width^0,c
  1973   0077B2  C049  F04D         	movff	_width,_flags
  1974   0077B6                     
  1975                           ;C:\Program Files\Microchip\xc8\v2.46\pic\sources\c99\common\doprnt.c: 1205:         pre
      +                          c = -1;
  1976   0077B6  684B               	setf	_prec^0,c
  1977   0077B8  684C               	setf	(_prec+1)^0,c
  1978   0077BA                     l1419:
  1979                           
  1980                           ;C:\Program Files\Microchip\xc8\v2.46\pic\sources\c99\common\doprnt.c: 1806:         ++*
      +                          fmt;
  1981   0077BA  500E               	movf	vfpfcnvrt@fmt^0,w,c
  1982   0077BC  6ED9               	movwf	fsr2l,c
  1983   0077BE  6ADA               	clrf	fsr2h,c
  1984   0077C0  2ADE               	incf	postinc2,f,c
  1985   0077C2  0E00               	movlw	0
  1986   0077C4  22DD               	addwfc	postdec2,f,c
  1987   0077C6  EFF8  F03B         	goto	l925
  1988   0077CA                     l1423:
  1989                           
  1990                           ;C:\Program Files\Microchip\xc8\v2.46\pic\sources\c99\common\doprnt.c: 1811:     fputc((
      +                          int)(*fmt)[0], fp);
  1991   0077CA  500E               	movf	vfpfcnvrt@fmt^0,w,c
  1992   0077CC  6ED9               	movwf	fsr2l,c
  1993   0077CE  6ADA               	clrf	fsr2h,c
  1994   0077D0  CFDE FFF6          	movff	postinc2,tblptrl
  1995   0077D4  CFDD FFF7          	movff	postdec2,tblptrh
  1996   0077D8                     	if	0	;tblptru may be non-zero
  1997   0077D8                     	endif
  1998   0077D8                     	if	0	;tblptru may be non-zero
  1999   0077D8                     	endif
  2000   0077D8  0008               	tblrd		*
  2001   0077DA  50F5               	movf	tablat,w,c
  2002   0077DC  6E03               	movwf	fputc@c^0,c
  2003   0077DE  6A04               	clrf	(fputc@c+1)^0,c
  2004   0077E0  C00C  F005         	movff	vfpfcnvrt@fp,fputc@fp
  2005   0077E4  C00D  F006         	movff	vfpfcnvrt@fp+1,fputc@fp+1
  2006   0077E8  EC3B  F03C         	call	_fputc	;wreg free
  2007   0077EC  EFDD  F03B         	goto	l1419
  2008   0077F0                     l925:
  2009   0077F0  0012               	return		;funcret
  2010   0077F2                     __end_of_vfpfcnvrt:
  2011                           	callstack 0
  2012                           
  2013 ;; *************** function _fputc *****************
  2014 ;; Defined at:
  2015 ;;		line 8 in file "C:\Program Files\Microchip\xc8\v2.46\pic\sources\c99\common\nf_fputc.c"
  2016 ;; Parameters:    Size  Location     Type
  2017 ;;  c               2    2[COMRAM] int 
  2018 ;;  fp              2    4[COMRAM] PTR struct _IO_FILE
  2019 ;;		 -> NULL(0), 
  2020 ;; Auto vars:     Size  Location     Type
  2021 ;;		None
  2022 ;; Return value:  Size  Location     Type
  2023 ;;                  2    2[COMRAM] int 
  2024 ;; Registers used:
  2025 ;;		wreg, fsr1l, fsr1h, fsr2l, fsr2h, status,2, status,0, cstack
  2026 ;; Tracked objects:
  2027 ;;		On entry : 0/0
  2028 ;;		On exit  : 0/0
  2029 ;;		Unchanged: 0/0
  2030 ;; Data sizes:     COMRAM   BANK0   BANK1   BANK2   BANK3   BANK4   BANK5   BANK6   BANK7
  2031 ;;      Params:         4       0       0       0       0       0       0       0       0
  2032 ;;      Locals:         0       0       0       0       0       0       0       0       0
  2033 ;;      Temps:          5       0       0       0       0       0       0       0       0
  2034 ;;      Totals:         9       0       0       0       0       0       0       0       0
  2035 ;;Total ram usage:        9 bytes
  2036 ;; Hardware stack levels used: 1
  2037 ;; Hardware stack levels required when called: 2
  2038 ;; This function calls:
  2039 ;;		_putch
  2040 ;; This function is called by:
  2041 ;;		_vfpfcnvrt
  2042 ;; This function uses a non-reentrant model
  2043 ;;
  2044                           
  2045                           	psect	text12
  2046   007876                     __ptext12:
  2047                           	callstack 0
  2048   007876                     _fputc:
  2049                           	callstack 23
  2050   007876  5005               	movf	fputc@fp^0,w,c
  2051   007878  1006               	iorwf	(fputc@fp+1)^0,w,c
  2052   00787A  B4D8               	btfsc	status,2,c
  2053   00787C  EF42  F03C         	goto	u541
  2054   007880  EF44  F03C         	goto	u540
  2055   007884                     u541:
  2056   007884  EF4D  F03C         	goto	l1401
  2057   007888                     u540:
  2058   007888  5005               	movf	fputc@fp^0,w,c
  2059   00788A  1006               	iorwf	(fputc@fp+1)^0,w,c
  2060   00788C  A4D8               	btfss	status,2,c
  2061   00788E  EF4B  F03C         	goto	u551
  2062   007892  EF4D  F03C         	goto	u550
  2063   007896                     u551:
  2064   007896  EF52  F03C         	goto	l1403
  2065   00789A                     u550:
  2066   00789A                     l1401:
  2067   00789A  5003               	movf	fputc@c^0,w,c
  2068   00789C  ECFC  F03A         	call	_putch
  2069   0078A0  EF9F  F03C         	goto	l943
  2070   0078A4                     l1403:
  2071   0078A4  EE20 F00A          	lfsr	2,10
  2072   0078A8  5005               	movf	fputc@fp^0,w,c
  2073   0078AA  26D9               	addwf	fsr2l,f,c
  2074   0078AC  5006               	movf	(fputc@fp+1)^0,w,c
  2075   0078AE  22DA               	addwfc	fsr2h,f,c
  2076   0078B0  50DE               	movf	postinc2,w,c
  2077   0078B2  10DE               	iorwf	postinc2,w,c
  2078   0078B4  B4D8               	btfsc	status,2,c
  2079   0078B6  EF5F  F03C         	goto	u561
  2080   0078BA  EF61  F03C         	goto	u560
  2081   0078BE                     u561:
  2082   0078BE  EF7C  F03C         	goto	l1407
  2083   0078C2                     u560:
  2084   0078C2  EE20 F00A          	lfsr	2,10
  2085   0078C6  5005               	movf	fputc@fp^0,w,c
  2086   0078C8  26D9               	addwf	fsr2l,f,c
  2087   0078CA  5006               	movf	(fputc@fp+1)^0,w,c
  2088   0078CC  22DA               	addwfc	fsr2h,f,c
  2089   0078CE  EE10 F003          	lfsr	1,3
  2090   0078D2  5005               	movf	fputc@fp^0,w,c
  2091   0078D4  26E1               	addwf	fsr1l,f,c
  2092   0078D6  5006               	movf	(fputc@fp+1)^0,w,c
  2093   0078D8  22E2               	addwfc	fsr1h,f,c
  2094   0078DA  50DE               	movf	postinc2,w,c
  2095   0078DC  5CE6               	subwf	postinc1,w,c
  2096   0078DE  50E6               	movf	postinc1,w,c
  2097   0078E0  0A80               	xorlw	128
  2098   0078E2  6E0B               	movwf	(??_fputc+4)^0,c
  2099   0078E4  50DE               	movf	postinc2,w,c
  2100   0078E6  0A80               	xorlw	128
  2101   0078E8  580B               	subwfb	(??_fputc+4)^0,w,c
  2102   0078EA  B0D8               	btfsc	status,0,c
  2103   0078EC  EF7A  F03C         	goto	u571
  2104   0078F0  EF7C  F03C         	goto	u570
  2105   0078F4                     u571:
  2106   0078F4  EF9F  F03C         	goto	l943
  2107   0078F8                     u570:
  2108   0078F8                     l1407:
  2109   0078F8  EE20 F003          	lfsr	2,3
  2110   0078FC  5005               	movf	fputc@fp^0,w,c
  2111   0078FE  26D9               	addwf	fsr2l,f,c
  2112   007900  5006               	movf	(fputc@fp+1)^0,w,c
  2113   007902  22DA               	addwfc	fsr2h,f,c
  2114   007904  CFDE F007          	movff	postinc2,??_fputc
  2115   007908  CFDD F008          	movff	postdec2,??_fputc+1
  2116   00790C  C005  FFD9         	movff	fputc@fp,fsr2l
  2117   007910  C006  FFDA         	movff	fputc@fp+1,fsr2h
  2118   007914  CFDE F009          	movff	postinc2,??_fputc+2
  2119   007918  CFDD F00A          	movff	postdec2,??_fputc+3
  2120   00791C  5007               	movf	??_fputc^0,w,c
  2121   00791E  2409               	addwf	(??_fputc+2)^0,w,c
  2122   007920  6ED9               	movwf	fsr2l,c
  2123   007922  5008               	movf	(??_fputc+1)^0,w,c
  2124   007924  200A               	addwfc	(??_fputc+3)^0,w,c
  2125   007926  6EDA               	movwf	fsr2h,c
  2126   007928  C003  FFDF         	movff	fputc@c,indf2
  2127   00792C  EE20 F003          	lfsr	2,3
  2128   007930  5005               	movf	fputc@fp^0,w,c
  2129   007932  26D9               	addwf	fsr2l,f,c
  2130   007934  5006               	movf	(fputc@fp+1)^0,w,c
  2131   007936  22DA               	addwfc	fsr2h,f,c
  2132   007938  2ADE               	incf	postinc2,f,c
  2133   00793A  0E00               	movlw	0
  2134   00793C  22DD               	addwfc	postdec2,f,c
  2135   00793E                     l943:
  2136   00793E  0012               	return		;funcret
  2137   007940                     __end_of_fputc:
  2138                           	callstack 0
  2139                           
  2140 ;; *************** function _putch *****************
  2141 ;; Defined at:
  2142 ;;		line 75 in file "librerias/UART.c"
  2143 ;; Parameters:    Size  Location     Type
  2144 ;;  data            1    wreg     unsigned char 
  2145 ;; Auto vars:     Size  Location     Type
  2146 ;;  data            1    1[COMRAM] unsigned char 
  2147 ;; Return value:  Size  Location     Type
  2148 ;;                  1    wreg      void 
  2149 ;; Registers used:
  2150 ;;		wreg, status,2, cstack
  2151 ;; Tracked objects:
  2152 ;;		On entry : 0/0
  2153 ;;		On exit  : 0/0
  2154 ;;		Unchanged: 0/0
  2155 ;; Data sizes:     COMRAM   BANK0   BANK1   BANK2   BANK3   BANK4   BANK5   BANK6   BANK7
  2156 ;;      Params:         0       0       0       0       0       0       0       0       0
  2157 ;;      Locals:         1       0       0       0       0       0       0       0       0
  2158 ;;      Temps:          0       0       0       0       0       0       0       0       0
  2159 ;;      Totals:         1       0       0       0       0       0       0       0       0
  2160 ;;Total ram usage:        1 bytes
  2161 ;; Hardware stack levels used: 1
  2162 ;; Hardware stack levels required when called: 1
  2163 ;; This function calls:
  2164 ;;		_UART_Tx
  2165 ;; This function is called by:
  2166 ;;		_fputc
  2167 ;; This function uses a non-reentrant model
  2168 ;;
  2169                           
  2170                           	psect	text13
  2171   0075F8                     __ptext13:
  2172                           	callstack 0
  2173   0075F8                     _putch:
  2174                           	callstack 23
  2175                           
  2176                           ;incstack = 0
  2177                           ;putch@data stored from wreg
  2178   0075F8  6E02               	movwf	putch@data^0,c
  2179   0075FA                     
  2180                           ;librerias/UART.c: 76:     UART_Tx(data);
  2181   0075FA  5002               	movf	putch@data^0,w,c
  2182   0075FC  EC01  F03B         	call	_UART_Tx
  2183   007600  0012               	return		;funcret
  2184   007602                     __end_of_putch:
  2185                           	callstack 0
  2186                           
  2187 ;; *************** function _UART_Tx *****************
  2188 ;; Defined at:
  2189 ;;		line 70 in file "librerias/UART.c"
  2190 ;; Parameters:    Size  Location     Type
  2191 ;;  dato            1    wreg     unsigned char 
  2192 ;; Auto vars:     Size  Location     Type
  2193 ;;  dato            1    0[COMRAM] unsigned char 
  2194 ;; Return value:  Size  Location     Type
  2195 ;;                  1    wreg      void 
  2196 ;; Registers used:
  2197 ;;		wreg
  2198 ;; Tracked objects:
  2199 ;;		On entry : 0/0
  2200 ;;		On exit  : 0/0
  2201 ;;		Unchanged: 0/0
  2202 ;; Data sizes:     COMRAM   BANK0   BANK1   BANK2   BANK3   BANK4   BANK5   BANK6   BANK7
  2203 ;;      Params:         0       0       0       0       0       0       0       0       0
  2204 ;;      Locals:         1       0       0       0       0       0       0       0       0
  2205 ;;      Temps:          0       0       0       0       0       0       0       0       0
  2206 ;;      Totals:         1       0       0       0       0       0       0       0       0
  2207 ;;Total ram usage:        1 bytes
  2208 ;; Hardware stack levels used: 1
  2209 ;; This function calls:
  2210 ;;		Nothing
  2211 ;; This function is called by:
  2212 ;;		_putch
  2213 ;; This function uses a non-reentrant model
  2214 ;;
  2215                           
  2216                           	psect	text14
  2217   007602                     __ptext14:
  2218                           	callstack 0
  2219   007602                     _UART_Tx:
  2220                           	callstack 23
  2221                           
  2222                           ;incstack = 0
  2223                           ;UART_Tx@dato stored from wreg
  2224   007602  6E01               	movwf	UART_Tx@dato^0,c
  2225   007604                     l106:
  2226   007604  A2AC               	btfss	4012,1,c	;volatile
  2227   007606  EF07  F03B         	goto	u11
  2228   00760A  EF09  F03B         	goto	u10
  2229   00760E                     u11:
  2230   00760E  EF02  F03B         	goto	l106
  2231   007612                     u10:
  2232   007612                     
  2233                           ;librerias/UART.c: 72:     TXREG1 = dato;
  2234   007612  C001  FFAD         	movff	UART_Tx@dato,4013	;volatile
  2235   007616  0012               	return		;funcret
  2236   007618                     __end_of_UART_Tx:
  2237                           	callstack 0
  2238                           
  2239 ;; *************** function _Clock_Init *****************
  2240 ;; Defined at:
  2241 ;;		line 3 in file "librerias/clock.c"
  2242 ;; Parameters:    Size  Location     Type
  2243 ;;  s16Timeout      2    0[COMRAM] short 
  2244 ;; Auto vars:     Size  Location     Type
  2245 ;;  bStatus         1    5[COMRAM] _Bool 
  2246 ;;  bStatus         1    4[COMRAM] _Bool 
  2247 ;;  bStatus         1    3[COMRAM] _Bool 
  2248 ;;  bStatus         1    2[COMRAM] _Bool 
  2249 ;;  returnCode      1    7[COMRAM] enum E5188
  2250 ;;  bItTimeEn       1    6[COMRAM] _Bool 
  2251 ;; Return value:  Size  Location     Type
  2252 ;;                  1    wreg      enum E5188
  2253 ;; Registers used:
  2254 ;;		wreg, status,2, status,0
  2255 ;; Tracked objects:
  2256 ;;		On entry : 0/0
  2257 ;;		On exit  : 0/0
  2258 ;;		Unchanged: 0/0
  2259 ;; Data sizes:     COMRAM   BANK0   BANK1   BANK2   BANK3   BANK4   BANK5   BANK6   BANK7
  2260 ;;      Params:         2       0       0       0       0       0       0       0       0
  2261 ;;      Locals:         6       0       0       0       0       0       0       0       0
  2262 ;;      Temps:          0       0       0       0       0       0       0       0       0
  2263 ;;      Totals:         8       0       0       0       0       0       0       0       0
  2264 ;;Total ram usage:        8 bytes
  2265 ;; Hardware stack levels used: 1
  2266 ;; This function calls:
  2267 ;;		Nothing
  2268 ;; This function is called by:
  2269 ;;		_main
  2270 ;; This function uses a non-reentrant model
  2271 ;;
  2272                           
  2273                           	psect	text15
  2274   007CD2                     __ptext15:
  2275                           	callstack 0
  2276   007CD2                     _Clock_Init:
  2277                           	callstack 30
  2278   007CD2                     
  2279                           ;librerias/clock.c: 4:     CLK_ERROR_CODE returnCode = ERROR_CODE_OK;
  2280   007CD2  0E00               	movlw	0
  2281   007CD4  6E08               	movwf	Clock_Init@returnCode^0,c
  2282   007CD6                     
  2283                           ;librerias/clock.c: 5:     _Bool bItTimeEn = (0 >= s16Timeout) ? 0 : 1;
  2284   007CD6  BE02               	btfsc	(Clock_Init@s16Timeout+1)^0,7,c
  2285   007CD8  EF79  F03E         	goto	u750
  2286   007CDC  5002               	movf	(Clock_Init@s16Timeout+1)^0,w,c
  2287   007CDE  E106               	bnz	u751
  2288   007CE0  0401               	decf	Clock_Init@s16Timeout^0,w,c
  2289   007CE2  B0D8               	btfsc	status,0,c
  2290   007CE4  EF76  F03E         	goto	u751
  2291   007CE8  EF79  F03E         	goto	u750
  2292   007CEC                     u751:
  2293   007CEC  0E01               	movlw	1
  2294   007CEE  EF7A  F03E         	goto	u760
  2295   007CF2                     u750:
  2296   007CF2  0E00               	movlw	0
  2297   007CF4                     u760:
  2298   007CF4  6E07               	movwf	Clock_Init@bItTimeEn^0,c
  2299   007CF6                     l140:
  2300                           
  2301                           ;librerias/clock.c: 10:             bStatus = OSCCON2bits.HFIOFR;
  2302   007CF6  B2D2               	btfsc	210,1,c	;volatile
  2303   007CF8  EF80  F03E         	goto	u771
  2304   007CFC  EF83  F03E         	goto	u770
  2305   007D00                     u771:
  2306   007D00  0E01               	movlw	1
  2307   007D02  EF84  F03E         	goto	u776
  2308   007D06                     u770:
  2309   007D06  0E00               	movlw	0
  2310   007D08                     u776:
  2311   007D08  6E03               	movwf	Clock_Init@bStatus^0,c
  2312   007D0A                     
  2313                           ;librerias/clock.c: 11:             s16Timeout--;
  2314   007D0A  0601               	decf	Clock_Init@s16Timeout^0,f,c
  2315   007D0C  A0D8               	btfss	status,0,c
  2316   007D0E  0602               	decf	(Clock_Init@s16Timeout+1)^0,f,c
  2317   007D10                     
  2318                           ;librerias/clock.c: 12:         }while((0 == bStatus) && ((0 < s16Timeout) || (0 == bItT
      +                          imeEn)));
  2319   007D10  5003               	movf	Clock_Init@bStatus^0,w,c
  2320   007D12  A4D8               	btfss	status,2,c
  2321   007D14  EF8E  F03E         	goto	u781
  2322   007D18  EF90  F03E         	goto	u780
  2323   007D1C                     u781:
  2324   007D1C  EFA5  F03E         	goto	l1629
  2325   007D20                     u780:
  2326   007D20  BE02               	btfsc	(Clock_Init@s16Timeout+1)^0,7,c
  2327   007D22  EF9D  F03E         	goto	u790
  2328   007D26  5002               	movf	(Clock_Init@s16Timeout+1)^0,w,c
  2329   007D28  E106               	bnz	u791
  2330   007D2A  0401               	decf	Clock_Init@s16Timeout^0,w,c
  2331   007D2C  B0D8               	btfsc	status,0,c
  2332   007D2E  EF9B  F03E         	goto	u791
  2333   007D32  EF9D  F03E         	goto	u790
  2334   007D36                     u791:
  2335   007D36  EF7B  F03E         	goto	l140
  2336   007D3A                     u790:
  2337   007D3A  5007               	movf	Clock_Init@bItTimeEn^0,w,c
  2338   007D3C  B4D8               	btfsc	status,2,c
  2339   007D3E  EFA3  F03E         	goto	u801
  2340   007D42  EFA5  F03E         	goto	u800
  2341   007D46                     u801:
  2342   007D46  EF7B  F03E         	goto	l140
  2343   007D4A                     u800:
  2344   007D4A                     l1629:
  2345                           
  2346                           ;librerias/clock.c: 13:         if (0 == bStatus){
  2347   007D4A  5003               	movf	Clock_Init@bStatus^0,w,c
  2348   007D4C  A4D8               	btfss	status,2,c
  2349   007D4E  EFAB  F03E         	goto	u811
  2350   007D52  EFAD  F03E         	goto	u810
  2351   007D56                     u811:
  2352   007D56  EFAF  F03E         	goto	l139
  2353   007D5A                     u810:
  2354   007D5A                     
  2355                           ;librerias/clock.c: 14:             returnCode = ERROR_CODE_TIMEOUT;
  2356   007D5A  0E01               	movlw	1
  2357   007D5C  6E08               	movwf	Clock_Init@returnCode^0,c
  2358   007D5E                     l139:
  2359                           
  2360                           ;librerias/clock.c: 18:     if(ERROR_CODE_OK == returnCode){
  2361   007D5E  5008               	movf	Clock_Init@returnCode^0,w,c
  2362   007D60  A4D8               	btfss	status,2,c
  2363   007D62  EFB5  F03E         	goto	u821
  2364   007D66  EFB7  F03E         	goto	u820
  2365   007D6A                     u821:
  2366   007D6A  EFEE  F03E         	goto	l145
  2367   007D6E                     u820:
  2368   007D6E                     
  2369                           ;librerias/clock.c: 19:         OSCCON2bits.INTSRC = 1;
  2370   007D6E  8AD2               	bsf	210,5,c	;volatile
  2371   007D70                     
  2372                           ;librerias/clock.c: 20:         OSCCONbits.IRCF = 7;
  2373   007D70  0E70               	movlw	112
  2374   007D72  12D3               	iorwf	211,f,c	;volatile
  2375   007D74                     l146:
  2376                           
  2377                           ;librerias/clock.c: 24:             bStatus = OSCCONbits.HFIOFS;
  2378   007D74  B4D3               	btfsc	211,2,c	;volatile
  2379   007D76  EFBF  F03E         	goto	u831
  2380   007D7A  EFC2  F03E         	goto	u830
  2381   007D7E                     u831:
  2382   007D7E  0E01               	movlw	1
  2383   007D80  EFC3  F03E         	goto	u836
  2384   007D84                     u830:
  2385   007D84  0E00               	movlw	0
  2386   007D86                     u836:
  2387   007D86  6E04               	movwf	Clock_Init@bStatus_548^0,c
  2388   007D88                     
  2389                           ;librerias/clock.c: 25:             s16Timeout--;
  2390   007D88  0601               	decf	Clock_Init@s16Timeout^0,f,c
  2391   007D8A  A0D8               	btfss	status,0,c
  2392   007D8C  0602               	decf	(Clock_Init@s16Timeout+1)^0,f,c
  2393   007D8E                     
  2394                           ;librerias/clock.c: 26:         }while((0 == bStatus) && ((0 < s16Timeout) || (0 == bItT
      +                          imeEn)));
  2395   007D8E  5004               	movf	Clock_Init@bStatus_548^0,w,c
  2396   007D90  A4D8               	btfss	status,2,c
  2397   007D92  EFCD  F03E         	goto	u841
  2398   007D96  EFCF  F03E         	goto	u840
  2399   007D9A                     u841:
  2400   007D9A  EFE4  F03E         	goto	l1645
  2401   007D9E                     u840:
  2402   007D9E  BE02               	btfsc	(Clock_Init@s16Timeout+1)^0,7,c
  2403   007DA0  EFDC  F03E         	goto	u850
  2404   007DA4  5002               	movf	(Clock_Init@s16Timeout+1)^0,w,c
  2405   007DA6  E106               	bnz	u851
  2406   007DA8  0401               	decf	Clock_Init@s16Timeout^0,w,c
  2407   007DAA  B0D8               	btfsc	status,0,c
  2408   007DAC  EFDA  F03E         	goto	u851
  2409   007DB0  EFDC  F03E         	goto	u850
  2410   007DB4                     u851:
  2411   007DB4  EFBA  F03E         	goto	l146
  2412   007DB8                     u850:
  2413   007DB8  5007               	movf	Clock_Init@bItTimeEn^0,w,c
  2414   007DBA  B4D8               	btfsc	status,2,c
  2415   007DBC  EFE2  F03E         	goto	u861
  2416   007DC0  EFE4  F03E         	goto	u860
  2417   007DC4                     u861:
  2418   007DC4  EFBA  F03E         	goto	l146
  2419   007DC8                     u860:
  2420   007DC8                     l1645:
  2421                           
  2422                           ;librerias/clock.c: 27:         if (0 == bStatus){
  2423   007DC8  5004               	movf	Clock_Init@bStatus_548^0,w,c
  2424   007DCA  A4D8               	btfss	status,2,c
  2425   007DCC  EFEA  F03E         	goto	u871
  2426   007DD0  EFEC  F03E         	goto	u870
  2427   007DD4                     u871:
  2428   007DD4  EFEE  F03E         	goto	l145
  2429   007DD8                     u870:
  2430   007DD8                     
  2431                           ;librerias/clock.c: 28:             returnCode = ERROR_CODE_TIMEOUT;
  2432   007DD8  0E01               	movlw	1
  2433   007DDA  6E08               	movwf	Clock_Init@returnCode^0,c
  2434   007DDC                     l145:
  2435                           
  2436                           ;librerias/clock.c: 32:     if(ERROR_CODE_OK == returnCode){
  2437   007DDC  5008               	movf	Clock_Init@returnCode^0,w,c
  2438   007DDE  A4D8               	btfss	status,2,c
  2439   007DE0  EFF4  F03E         	goto	u881
  2440   007DE4  EFF6  F03E         	goto	u880
  2441   007DE8                     u881:
  2442   007DE8  EF2A  F03F         	goto	l151
  2443   007DEC                     u880:
  2444   007DEC                     l152:
  2445                           
  2446                           ;librerias/clock.c: 35:             bStatus = OSCCONbits.OSTS;
  2447   007DEC  B6D3               	btfsc	211,3,c	;volatile
  2448   007DEE  EFFB  F03E         	goto	u891
  2449   007DF2  EFFE  F03E         	goto	u890
  2450   007DF6                     u891:
  2451   007DF6  0E01               	movlw	1
  2452   007DF8  EFFF  F03E         	goto	u896
  2453   007DFC                     u890:
  2454   007DFC  0E00               	movlw	0
  2455   007DFE                     u896:
  2456   007DFE  6E05               	movwf	Clock_Init@bStatus_549^0,c
  2457   007E00                     
  2458                           ;librerias/clock.c: 36:             s16Timeout--;
  2459   007E00  0601               	decf	Clock_Init@s16Timeout^0,f,c
  2460   007E02  A0D8               	btfss	status,0,c
  2461   007E04  0602               	decf	(Clock_Init@s16Timeout+1)^0,f,c
  2462   007E06                     
  2463                           ;librerias/clock.c: 37:         }while((0 == bStatus) && ((0 < s16Timeout) || (0 == bItT
      +                          imeEn)));
  2464   007E06  5005               	movf	Clock_Init@bStatus_549^0,w,c
  2465   007E08  A4D8               	btfss	status,2,c
  2466   007E0A  EF09  F03F         	goto	u901
  2467   007E0E  EF0B  F03F         	goto	u900
  2468   007E12                     u901:
  2469   007E12  EF20  F03F         	goto	l1659
  2470   007E16                     u900:
  2471   007E16  BE02               	btfsc	(Clock_Init@s16Timeout+1)^0,7,c
  2472   007E18  EF18  F03F         	goto	u910
  2473   007E1C  5002               	movf	(Clock_Init@s16Timeout+1)^0,w,c
  2474   007E1E  E106               	bnz	u911
  2475   007E20  0401               	decf	Clock_Init@s16Timeout^0,w,c
  2476   007E22  B0D8               	btfsc	status,0,c
  2477   007E24  EF16  F03F         	goto	u911
  2478   007E28  EF18  F03F         	goto	u910
  2479   007E2C                     u911:
  2480   007E2C  EFF6  F03E         	goto	l152
  2481   007E30                     u910:
  2482   007E30  5007               	movf	Clock_Init@bItTimeEn^0,w,c
  2483   007E32  B4D8               	btfsc	status,2,c
  2484   007E34  EF1E  F03F         	goto	u921
  2485   007E38  EF20  F03F         	goto	u920
  2486   007E3C                     u921:
  2487   007E3C  EFF6  F03E         	goto	l152
  2488   007E40                     u920:
  2489   007E40                     l1659:
  2490                           
  2491                           ;librerias/clock.c: 38:         if (0 == bStatus){
  2492   007E40  5005               	movf	Clock_Init@bStatus_549^0,w,c
  2493   007E42  A4D8               	btfss	status,2,c
  2494   007E44  EF26  F03F         	goto	u931
  2495   007E48  EF28  F03F         	goto	u930
  2496   007E4C                     u931:
  2497   007E4C  EF2A  F03F         	goto	l151
  2498   007E50                     u930:
  2499   007E50                     
  2500                           ;librerias/clock.c: 39:             returnCode = ERROR_CODE_TIMEOUT;
  2501   007E50  0E01               	movlw	1
  2502   007E52  6E08               	movwf	Clock_Init@returnCode^0,c
  2503   007E54                     l151:
  2504                           
  2505                           ;librerias/clock.c: 42:         if(ERROR_CODE_OK == returnCode){
  2506   007E54  5008               	movf	Clock_Init@returnCode^0,w,c
  2507   007E56  A4D8               	btfss	status,2,c
  2508   007E58  EF30  F03F         	goto	u941
  2509   007E5C  EF32  F03F         	goto	u940
  2510   007E60                     u941:
  2511   007E60  EF68  F03F         	goto	l157
  2512   007E64                     u940:
  2513   007E64                     
  2514                           ;librerias/clock.c: 43:         OSCTUNEbits.SPLLMULT = 1;
  2515   007E64  8E9B               	bsf	155,7,c	;volatile
  2516                           
  2517                           ;librerias/clock.c: 44:         OSCCON2bits.PLLEN = 1;
  2518   007E66  88D2               	bsf	210,4,c	;volatile
  2519   007E68                     l158:
  2520                           
  2521                           ;librerias/clock.c: 47:             bStatus = OSCCON2bits.PLLRDY;
  2522   007E68  BED2               	btfsc	210,7,c	;volatile
  2523   007E6A  EF39  F03F         	goto	u951
  2524   007E6E  EF3C  F03F         	goto	u950
  2525   007E72                     u951:
  2526   007E72  0E01               	movlw	1
  2527   007E74  EF3D  F03F         	goto	u956
  2528   007E78                     u950:
  2529   007E78  0E00               	movlw	0
  2530   007E7A                     u956:
  2531   007E7A  6E06               	movwf	Clock_Init@bStatus_552^0,c
  2532   007E7C                     
  2533                           ;librerias/clock.c: 48:             s16Timeout--;
  2534   007E7C  0601               	decf	Clock_Init@s16Timeout^0,f,c
  2535   007E7E  A0D8               	btfss	status,0,c
  2536   007E80  0602               	decf	(Clock_Init@s16Timeout+1)^0,f,c
  2537   007E82                     
  2538                           ;librerias/clock.c: 49:         }while((0 == bStatus) && ((0 < s16Timeout) || (0 == bItT
      +                          imeEn)));
  2539   007E82  5006               	movf	Clock_Init@bStatus_552^0,w,c
  2540   007E84  A4D8               	btfss	status,2,c
  2541   007E86  EF47  F03F         	goto	u961
  2542   007E8A  EF49  F03F         	goto	u960
  2543   007E8E                     u961:
  2544   007E8E  EF5E  F03F         	goto	l1675
  2545   007E92                     u960:
  2546   007E92  BE02               	btfsc	(Clock_Init@s16Timeout+1)^0,7,c
  2547   007E94  EF56  F03F         	goto	u970
  2548   007E98  5002               	movf	(Clock_Init@s16Timeout+1)^0,w,c
  2549   007E9A  E106               	bnz	u971
  2550   007E9C  0401               	decf	Clock_Init@s16Timeout^0,w,c
  2551   007E9E  B0D8               	btfsc	status,0,c
  2552   007EA0  EF54  F03F         	goto	u971
  2553   007EA4  EF56  F03F         	goto	u970
  2554   007EA8                     u971:
  2555   007EA8  EF34  F03F         	goto	l158
  2556   007EAC                     u970:
  2557   007EAC  5007               	movf	Clock_Init@bItTimeEn^0,w,c
  2558   007EAE  B4D8               	btfsc	status,2,c
  2559   007EB0  EF5C  F03F         	goto	u981
  2560   007EB4  EF5E  F03F         	goto	u980
  2561   007EB8                     u981:
  2562   007EB8  EF34  F03F         	goto	l158
  2563   007EBC                     u980:
  2564   007EBC                     l1675:
  2565                           
  2566                           ;librerias/clock.c: 50:         if (0 == bStatus){
  2567   007EBC  5006               	movf	Clock_Init@bStatus_552^0,w,c
  2568   007EBE  A4D8               	btfss	status,2,c
  2569   007EC0  EF64  F03F         	goto	u991
  2570   007EC4  EF66  F03F         	goto	u990
  2571   007EC8                     u991:
  2572   007EC8  EF68  F03F         	goto	l157
  2573   007ECC                     u990:
  2574   007ECC                     
  2575                           ;librerias/clock.c: 51:             returnCode = ERROR_CODE_TIMEOUT;
  2576   007ECC  0E01               	movlw	1
  2577   007ECE  6E08               	movwf	Clock_Init@returnCode^0,c
  2578   007ED0                     l157:
  2579                           
  2580                           ;librerias/clock.c: 56:     if(ERROR_CODE_OK == returnCode){
  2581   007ED0  5008               	movf	Clock_Init@returnCode^0,w,c
  2582   007ED2  A4D8               	btfss	status,2,c
  2583   007ED4  EF6E  F03F         	goto	u1001
  2584   007ED8  EF70  F03F         	goto	u1000
  2585   007EDC                     u1001:
  2586   007EDC  EF73  F03F         	goto	l164
  2587   007EE0                     u1000:
  2588   007EE0                     
  2589                           ;librerias/clock.c: 57:         OSCCON2bits.PRISD = 0;
  2590   007EE0  94D2               	bcf	210,2,c	;volatile
  2591   007EE2                     
  2592                           ;librerias/clock.c: 58:         OSCCONbits.SCS = 0;
  2593   007EE2  0EFC               	movlw	-4
  2594   007EE4  16D3               	andwf	211,f,c	;volatile
  2595   007EE6                     l164:
  2596   007EE6  0012               	return		;funcret
  2597   007EE8                     __end_of_Clock_Init:
  2598                           	callstack 0
  2599                           
  2600                           	psect	rparam
  2601   000000                     
  2602                           	psect	config
  2603                           
  2604                           ;Config register CONFIG1L @ 0x300000
  2605                           ;	PLL Selection
  2606                           ;	PLLSEL = PLL3X, 3x clock multiplier
  2607                           ;	PLL Enable Configuration bit
  2608                           ;	CFGPLLEN = ON, PLL Enabled
  2609                           ;	CPU System Clock Postscaler
  2610                           ;	CPUDIV = NOCLKDIV, CPU uses system clock (no divide)
  2611                           ;	Low Speed USB mode with 48 MHz system clock
  2612                           ;	LS48MHZ = SYS48X8, System clock at 48 MHz, USB clock divider is set to 8
  2613   300000                     	org	3145728
  2614   300000  23                 	db	35
  2615                           
  2616                           ;Config register CONFIG1H @ 0x300001
  2617                           ;	Oscillator Selection
  2618                           ;	FOSC = INTOSCCLKO, Internal oscillator, clock output on OSC2
  2619                           ;	Primary Oscillator Shutdown
  2620                           ;	PCLKEN = OFF, Primary oscillator shutdown firmware controlled
  2621                           ;	Fail-Safe Clock Monitor
  2622                           ;	FCMEN = OFF, Fail-Safe Clock Monitor disabled
  2623                           ;	Internal/External Oscillator Switchover
  2624                           ;	IESO = OFF, Oscillator Switchover mode disabled
  2625   300001                     	org	3145729
  2626   300001  09                 	db	9
  2627                           
  2628                           ;Config register CONFIG2L @ 0x300002
  2629                           ;	Power-up Timer Enable
  2630                           ;	nPWRTEN = OFF, Power up timer disabled
  2631                           ;	Brown-out Reset Enable
  2632                           ;	BOREN = SBORDIS, BOR enabled in hardware (SBOREN is ignored)
  2633                           ;	Brown-out Reset Voltage
  2634                           ;	BORV = 190, BOR set to 1.9V nominal
  2635                           ;	Low-Power Brown-out Reset
  2636                           ;	nLPBOR = OFF, Low-Power Brown-out Reset disabled
  2637   300002                     	org	3145730
  2638   300002  5F                 	db	95
  2639                           
  2640                           ;Config register CONFIG2H @ 0x300003
  2641                           ;	Watchdog Timer Enable bits
  2642                           ;	WDTEN = OFF, WDT disabled in hardware (SWDTEN ignored)
  2643                           ;	Watchdog Timer Postscaler
  2644                           ;	WDTPS = 32768, 1:32768
  2645   300003                     	org	3145731
  2646   300003  3C                 	db	60
  2647                           
  2648                           ; Padding undefined space
  2649   300004                     	org	3145732
  2650   300004  FF                 	db	255
  2651                           
  2652                           ;Config register CONFIG3H @ 0x300005
  2653                           ;	CCP2 MUX bit
  2654                           ;	CCP2MX = RC1, CCP2 input/output is multiplexed with RC1
  2655                           ;	PORTB A/D Enable bit
  2656                           ;	PBADEN = ON, PORTB<5:0> pins are configured as analog input channels on Reset
  2657                           ;	Timer3 Clock Input MUX bit
  2658                           ;	T3CMX = RC0, T3CKI function is on RC0
  2659                           ;	SDO Output MUX bit
  2660                           ;	SDOMX = RB3, SDO function is on RB3
  2661                           ;	Master Clear Reset Pin Enable
  2662                           ;	MCLRE = ON, MCLR pin enabled; RE3 input disabled
  2663   300005                     	org	3145733
  2664   300005  D3                 	db	211
  2665                           
  2666                           ;Config register CONFIG4L @ 0x300006
  2667                           ;	Stack Full/Underflow Reset
  2668                           ;	STVREN = ON, Stack full/underflow will cause Reset
  2669                           ;	Single-Supply ICSP Enable bit
  2670                           ;	LVP = ON, Single-Supply ICSP enabled if MCLRE is also 1
  2671                           ;	Dedicated In-Circuit Debug/Programming Port Enable
  2672                           ;	ICPRT = OFF, ICPORT disabled
  2673                           ;	Extended Instruction Set Enable bit
  2674                           ;	XINST = OFF, Instruction set extension and Indexed Addressing mode disabled
  2675                           ;	Background Debugger Enable bit
  2676                           ;	DEBUG = 0x1, unprogrammed default
  2677   300006                     	org	3145734
  2678   300006  85                 	db	133
  2679                           
  2680                           ; Padding undefined space
  2681   300007                     	org	3145735
  2682   300007  FF                 	db	255
  2683                           
  2684                           ;Config register CONFIG5L @ 0x300008
  2685                           ;	Block 0 Code Protect
  2686                           ;	CP0 = OFF, Block 0 is not code-protected
  2687                           ;	Block 1 Code Protect
  2688                           ;	CP1 = OFF, Block 1 is not code-protected
  2689                           ;	Block 2 Code Protect
  2690                           ;	CP2 = OFF, Block 2 is not code-protected
  2691                           ;	Block 3 Code Protect
  2692                           ;	CP3 = OFF, Block 3 is not code-protected
  2693   300008                     	org	3145736
  2694   300008  0F                 	db	15
  2695                           
  2696                           ;Config register CONFIG5H @ 0x300009
  2697                           ;	Boot Block Code Protect
  2698                           ;	CPB = OFF, Boot block is not code-protected
  2699                           ;	Data EEPROM Code Protect
  2700                           ;	CPD = OFF, Data EEPROM is not code-protected
  2701   300009                     	org	3145737
  2702   300009  C0                 	db	192
  2703                           
  2704                           ;Config register CONFIG6L @ 0x30000A
  2705                           ;	Block 0 Write Protect
  2706                           ;	WRT0 = OFF, Block 0 (0800-1FFFh) is not write-protected
  2707                           ;	Block 1 Write Protect
  2708                           ;	WRT1 = OFF, Block 1 (2000-3FFFh) is not write-protected
  2709                           ;	Block 2 Write Protect
  2710                           ;	WRT2 = OFF, Block 2 (04000-5FFFh) is not write-protected
  2711                           ;	Block 3 Write Protect
  2712                           ;	WRT3 = OFF, Block 3 (06000-7FFFh) is not write-protected
  2713   30000A                     	org	3145738
  2714   30000A  0F                 	db	15
  2715                           
  2716                           ;Config register CONFIG6H @ 0x30000B
  2717                           ;	Configuration Registers Write Protect
  2718                           ;	WRTC = OFF, Configuration registers (300000-3000FFh) are not write-protected
  2719                           ;	Boot Block Write Protect
  2720                           ;	WRTB = OFF, Boot block (0000-7FFh) is not write-protected
  2721                           ;	Data EEPROM Write Protect
  2722                           ;	WRTD = OFF, Data EEPROM is not write-protected
  2723   30000B                     	org	3145739
  2724   30000B  E0                 	db	224
  2725                           
  2726                           ;Config register CONFIG7L @ 0x30000C
  2727                           ;	Block 0 Table Read Protect
  2728                           ;	EBTR0 = OFF, Block 0 is not protected from table reads executed in other blocks
  2729                           ;	Block 1 Table Read Protect
  2730                           ;	EBTR1 = OFF, Block 1 is not protected from table reads executed in other blocks
  2731                           ;	Block 2 Table Read Protect
  2732                           ;	EBTR2 = OFF, Block 2 is not protected from table reads executed in other blocks
  2733                           ;	Block 3 Table Read Protect
  2734                           ;	EBTR3 = OFF, Block 3 is not protected from table reads executed in other blocks
  2735   30000C                     	org	3145740
  2736   30000C  0F                 	db	15
  2737                           
  2738                           ;Config register CONFIG7H @ 0x30000D
  2739                           ;	Boot Block Table Read Protect
  2740                           ;	EBTRB = OFF, Boot block is not protected from table reads executed in other blocks
  2741   30000D                     	org	3145741
  2742   30000D  40                 	db	64
  2743                           tosu	equ	0xFFF
  2744                           tosh	equ	0xFFE
  2745                           tosl	equ	0xFFD
  2746                           stkptr	equ	0xFFC
  2747                           pclatu	equ	0xFFB
  2748                           pclath	equ	0xFFA
  2749                           pcl	equ	0xFF9
  2750                           tblptru	equ	0xFF8
  2751                           tblptrh	equ	0xFF7
  2752                           tblptrl	equ	0xFF6
  2753                           tablat	equ	0xFF5
  2754                           prodh	equ	0xFF4
  2755                           prodl	equ	0xFF3
  2756                           indf0	equ	0xFEF
  2757                           postinc0	equ	0xFEE
  2758                           postdec0	equ	0xFED
  2759                           preinc0	equ	0xFEC
  2760                           plusw0	equ	0xFEB
  2761                           fsr0h	equ	0xFEA
  2762                           fsr0l	equ	0xFE9
  2763                           wreg	equ	0xFE8
  2764                           indf1	equ	0xFE7
  2765                           postinc1	equ	0xFE6
  2766                           postdec1	equ	0xFE5
  2767                           preinc1	equ	0xFE4
  2768                           plusw1	equ	0xFE3
  2769                           fsr1h	equ	0xFE2
  2770                           fsr1l	equ	0xFE1
  2771                           bsr	equ	0xFE0
  2772                           indf2	equ	0xFDF
  2773                           postinc2	equ	0xFDE
  2774                           postdec2	equ	0xFDD
  2775                           preinc2	equ	0xFDC
  2776                           plusw2	equ	0xFDB
  2777                           fsr2h	equ	0xFDA
  2778                           fsr2l	equ	0xFD9
  2779                           status	equ	0xFD8

Data Sizes:
    Strings     277
    Constant    0
    Data        0
    BSS         37
    Persistent  0
    Stack       0

Auto Spaces:
    Space          Size  Autos    Used
    COMRAM           95     40      77
    BANK0           160      0       0
    BANK1           256      0       0
    BANK2           256      0       0
    BANK3           256      0       0
    BANK4           256      0       0
    BANK5           256      0       0
    BANK6           256      0       0
    BANK7           256      0       0

Pointer List with Targets:

    fputc@fp	PTR struct _IO_FILE size(2) Largest target is 0
		 -> NULL(NULL[0]), 

    fputc@fp$.$buffer	PTR unsigned char  size(2) Largest target is 0

    fputc@fp$.$source	PTR const unsigned char  size(2) Largest target is 0

    printf@ap	PTR void [1] size(1) Largest target is 2
		 -> ?_printf(COMRAM[2]), 

    printf@fmt	PTR const unsigned char  size(2) Largest target is 28
		 -> STR_1(CODE[7]), STR_10(CODE[9]), STR_11(CODE[14]), STR_12(CODE[17]), 
		 -> STR_13(CODE[10]), STR_14(CODE[14]), STR_15(CODE[17]), STR_16(CODE[11]), 
		 -> STR_17(CODE[14]), STR_18(CODE[17]), STR_19(CODE[8]), STR_2(CODE[10]), 
		 -> STR_20(CODE[25]), STR_21(CODE[24]), STR_22(CODE[26]), STR_23(CODE[8]), 
		 -> STR_24(CODE[28]), STR_3(CODE[11]), STR_4(CODE[18]), STR_5(CODE[18]), 
		 -> STR_6(CODE[11]), STR_7(CODE[9]), STR_8(CODE[8]), STR_9(CODE[13]), 

    S1182$buffer	PTR unsigned char  size(2) Largest target is 0

    S1182$source	PTR const unsigned char  size(2) Largest target is 0

    vfpfcnvrt@ap	PTR PTR void  size(1) Largest target is 1
		 -> printf@ap(COMRAM[1]), 

    vfpfcnvrt@fmt	PTR PTR unsigned char  size(1) Largest target is 2
		 -> vfprintf@cfmt(COMRAM[2]), 

    vfpfcnvrt@fp	PTR struct _IO_FILE size(2) Largest target is 0
		 -> NULL(NULL[0]), 

    vfprintf@ap	PTR PTR void  size(1) Largest target is 1
		 -> printf@ap(COMRAM[1]), 

    vfprintf@cfmt	PTR unsigned char  size(2) Largest target is 28
		 -> STR_1(CODE[7]), STR_10(CODE[9]), STR_11(CODE[14]), STR_12(CODE[17]), 
		 -> STR_13(CODE[10]), STR_14(CODE[14]), STR_15(CODE[17]), STR_16(CODE[11]), 
		 -> STR_17(CODE[14]), STR_18(CODE[17]), STR_19(CODE[8]), STR_2(CODE[10]), 
		 -> STR_20(CODE[25]), STR_21(CODE[24]), STR_22(CODE[26]), STR_23(CODE[8]), 
		 -> STR_24(CODE[28]), STR_3(CODE[11]), STR_4(CODE[18]), STR_5(CODE[18]), 
		 -> STR_6(CODE[11]), STR_7(CODE[9]), STR_8(CODE[8]), STR_9(CODE[13]), 

    vfprintf@fmt	PTR const unsigned char  size(2) Largest target is 28
		 -> STR_1(CODE[7]), STR_10(CODE[9]), STR_11(CODE[14]), STR_12(CODE[17]), 
		 -> STR_13(CODE[10]), STR_14(CODE[14]), STR_15(CODE[17]), STR_16(CODE[11]), 
		 -> STR_17(CODE[14]), STR_18(CODE[17]), STR_19(CODE[8]), STR_2(CODE[10]), 
		 -> STR_20(CODE[25]), STR_21(CODE[24]), STR_22(CODE[26]), STR_23(CODE[8]), 
		 -> STR_24(CODE[28]), STR_3(CODE[11]), STR_4(CODE[18]), STR_5(CODE[18]), 
		 -> STR_6(CODE[11]), STR_7(CODE[9]), STR_8(CODE[8]), STR_9(CODE[13]), 

    vfprintf@fp	PTR struct _IO_FILE size(2) Largest target is 0
		 -> NULL(NULL[0]), 


Critical Paths under _main in COMRAM

    _UART_config_show->_printf
    _SPI_master_init->_SPI_BaudRateGen
    _SPI_BaudRateGen->_SPI_ErrorHandler
    _SPI_ErrorHandler->_printf
    _printf->_vfprintf
    _vfprintf->_vfpfcnvrt
    _vfpfcnvrt->_fputc
    _fputc->_putch
    _putch->_UART_Tx

Critical Paths under _main in BANK0

    None.

Critical Paths under _main in BANK1

    None.

Critical Paths under _main in BANK2

    None.

Critical Paths under _main in BANK3

    None.

Critical Paths under _main in BANK4

    None.

Critical Paths under _main in BANK5

    None.

Critical Paths under _main in BANK6

    None.

Critical Paths under _main in BANK7

    None.

Call Graph Tables:

 ---------------------------------------------------------------------------------
 (Depth) Function   	        Calls       Base Space   Used Autos Params    Refs
 ---------------------------------------------------------------------------------
 (0) _main                                                 0     0      0    7920
                         _Clock_Init
                    _SPI_master_init
                          _SPI_write
                          _UART_Init
 ---------------------------------------------------------------------------------
 (1) _UART_Init                                            4     0      4    3439
                                             25 COMRAM     4     0      4
                   _UART_config_show
                   _UART_select_baud
 ---------------------------------------------------------------------------------
 (2) _UART_select_baud                                     8     4      4      98
                                              0 COMRAM     8     4      4
 ---------------------------------------------------------------------------------
 (2) _UART_config_show                                     0     0      0    3243
                             _printf
 ---------------------------------------------------------------------------------
 (1) _SPI_write                                            1     1      0      15
                                              0 COMRAM     1     1      0
 ---------------------------------------------------------------------------------
 (1) _SPI_master_init                                      0     0      0    3882
                    _SPI_BaudRateGen
 ---------------------------------------------------------------------------------
 (2) _SPI_BaudRateGen                                     12     8      4    3882
                                             28 COMRAM    12     8      4
                   _SPI_ErrorHandler
                            ___aldiv
 ---------------------------------------------------------------------------------
 (3) ___aldiv                                             14     6      8     452
                                              0 COMRAM    14     6      8
 ---------------------------------------------------------------------------------
 (3) _SPI_ErrorHandler                                     3     3      0    3287
                                             25 COMRAM     3     3      0
                             _printf
 ---------------------------------------------------------------------------------
 (3) _printf                                               5     3      2    3243
                                             22 COMRAM     3     1      2
                           _vfprintf
 ---------------------------------------------------------------------------------
 (4) _vfprintf                                             7     2      5    1367
                                             15 COMRAM     7     2      5
                          _vfpfcnvrt
 ---------------------------------------------------------------------------------
 (5) _vfpfcnvrt                                            9     5      4    1020
                                             11 COMRAM     4     0      4
                              _fputc
 ---------------------------------------------------------------------------------
 (6) _fputc                                                9     5      4     660
                                              2 COMRAM     9     5      4
                              _putch
 ---------------------------------------------------------------------------------
 (7) _putch                                                1     1      0      30
                                              1 COMRAM     1     1      0
                            _UART_Tx
 ---------------------------------------------------------------------------------
 (8) _UART_Tx                                              1     1      0      15
                                              0 COMRAM     1     1      0
 ---------------------------------------------------------------------------------
 (1) _Clock_Init                                           8     6      2     584
                                              0 COMRAM     8     6      2
 ---------------------------------------------------------------------------------
 Estimated maximum stack depth 8
 ---------------------------------------------------------------------------------

 Call Graph Graphs:

 _main (ROOT)
   _Clock_Init
   _SPI_master_init
     _SPI_BaudRateGen
       _SPI_ErrorHandler
         _printf
           _vfprintf
             _vfpfcnvrt
               _fputc
                 _putch
                   _UART_Tx
       ___aldiv
   _SPI_write
   _UART_Init
     _UART_config_show
       _printf
     _UART_select_baud

 Address spaces:
Name               Size   Autos  Total    Cost      Usage
BIGRAM             7FF      0       0      30        0.0%
EEDATA             100      0       0       0        0.0%
BITBANK7           100      0       0      18        0.0%
BANK7              100      0       0      19        0.0%
BITBANK6           100      0       0      16        0.0%
BANK6              100      0       0      17        0.0%
BITBANK5           100      0       0      14        0.0%
BANK5              100      0       0      15        0.0%
BITBANK4           100      0       0      12        0.0%
BANK4              100      0       0      13        0.0%
BITBANK3           100      0       0      10        0.0%
BANK3              100      0       0      11        0.0%
BITBANK2           100      0       0       8        0.0%
BANK2              100      0       0       9        0.0%
BITBANK1           100      0       0       6        0.0%
BANK1              100      0       0       7        0.0%
BITBANK0            A0      0       0       4        0.0%
BANK0               A0      0       0       5        0.0%
BITCOMRAM           5F      0       0       0        0.0%
COMRAM              5F     28      4D       1       81.1%
BITBIGSFRlll        3F      0       0      28        0.0%
BITBIGSFRhhh        2C      0       0      20        0.0%
BITBIGSFRhhll        D      0       0      23        0.0%
BITBIGSFRlhh         C      0       0      25        0.0%
BITBIGSFRhhlhh       8      0       0      21        0.0%
BITBIGSFRhlh         7      0       0      24        0.0%
BITBIGSFRlhll        6      0       0      27        0.0%
BITBIGSFRlhlh        2      0       0      26        0.0%
BITBIGSFRhhlhl       1      0       0      22        0.0%
BIGSFR               0      0       0     200        0.0%
BITSFR_1             0      0       0     200        0.0%
SFR_1                0      0       0     200        0.0%
BITSFR               0      0       0     200        0.0%
SFR                  0      0       0     200        0.0%
STACK                0      0       0       2        0.0%
NULL                 0      0       0       0        0.0%
ABS                  0      0      4D      29        0.0%
DATA                 0      0      4D       3        0.0%
CODE                 0      0       0       0        0.0%


Microchip Technology PIC18 Macro Assembler V2.46 build 20240104201356 
Symbol Table                                                                                   Sat Sep 14 15:32:37 2024

                       l13 76CC                         l14 76CC                         l70 7BEC  
                       l82 7C9A                         l74 7C22                         l90 7674  
                       l78 7C64                         l87 7CD0                         u10 7612  
                       u11 760E                        l103 7B8A                        l112 7600  
                      l201 75F6                        l106 7604                        l140 7CF6  
                      l109 7616                        l151 7E54                        l303 7A4A  
                      l152 7DEC                        l145 7DDC                        l217 777A  
                      l146 7D74                        l139 7D5E                        l164 7EE6  
                      l157 7ED0                        l158 7E68                        l192 7870  
                      l193 7874                        l189 76A0                        l902 764A  
                      l931 7718                        l925 77F0                        l943 793E  
                      l953 7604                        l955 7612                        l957 75FA  
         ?_SPI_BaudRateGen 001D                        u600 772C                        u601 7728  
                      u610 7952                        u611 794E                        u540 7888  
                      u620 7974                        u700 7C48                        u541 7884  
                      u621 7970                        u701 7C44                        u550 789A  
                      u630 79AE                        u710 7C7E                        u551 7896  
                      u631 79AA                        u711 7C7A                        u800 7D4A  
                      u560 78C2                        u640 79D0                        u720 7CB4  
                      u801 7D46                        u561 78BE                        u641 79CC  
                      u721 7CB0                        u810 7D5A                        u570 78F8  
                      u650 79F8                        u811 7D56                        u571 78F4  
                      u651 79F4                        u900 7E16                        u820 7D6E  
                      u580 779E                        u660 7A2A                        u740 7866  
                      u901 7E12                        u821 7D6A                        u581 779A  
                      u661 7A26                        u741 7862                        u910 7E30  
                      u830 7D84                        u750 7CF2                        u590 7710  
                      u670 7BA6                        u911 7E2C                        u831 7D7E  
                      u751 7CEC                        u591 770C                        u735 7814  
                      u671 7BA2                        u920 7E40                        u840 7D9E  
                      u760 7CF4                        u680 7BD0                        u921 7E3C  
                      u841 7D9A                        u681 7BCC                        u930 7E50  
                      u850 7DB8                        u770 7D06                        u690 7C06  
                      u931 7E4C                        u851 7DB4                        u771 7D00  
                      u691 7C02                        u940 7E64                        u860 7DC8  
                      u836 7D86                        u780 7D20                        u941 7E60  
                      u861 7DC4                        u781 7D1C                        u950 7E78  
                      u870 7DD8                        u790 7D3A                        u951 7E72  
                      u871 7DD4                        u791 7D36                        u960 7E92  
                      u880 7DEC                        u776 7D08                        u961 7E8E  
                      u881 7DE8                        u970 7EAC                        u890 7DFC  
                      u971 7EA8                        u891 7DF6                        u980 7EBC  
                      u956 7E7A                        u981 7EB8                        u990 7ECC  
                      u991 7EC8                        u896 7DFE                        wreg 0FE8  
               _TXSTA1bits 0FAC                       l1401 789A                       l1403 78A4  
                     l1411 777C                       l1405 78C2                       l1413 779E  
                     l1501 7A3A                       l1407 78F8                       l1415 77AA  
                     l1423 77CA                       l1431 76E0                       l1511 7BB6  
                     l1417 77B6                       l1433 76F4                       l1441 7632  
                     l1281 75F2                       l1521 7C06                       l1513 7BC2  
                     l1505 7B8C                       l1419 77BA                       l1435 7710  
                     l1451 7740                       l1531 7C70                       l1523 7C16  
                     l1515 7BD0                       l1507 7B98                       l1621 7D0A  
                     l1613 7CD2                       l1429 76D4                       l1445 771C  
                     l1461 7940                       l1605 77F2                       l1701 7676  
                     l1541 7CC4                       l1533 7C7E                       l1525 7C3A  
                     l1517 7BE0                       l1509 7BA6                       l1631 7D5A  
                     l1623 7D10                       l1615 7CD6                       l1439 762E  
                     l1455 7750                       l1471 7974                       l1463 7944  
                     l1607 7850                       l1711 7692                       l1703 768A  
                     l1535 7C8E                       l1527 7C48                       l1519 7BF8  
                     l1551 7A74                       l1543 7A4C                       l1641 7D9E  
                     l1633 7D6E                       l1625 7D20                       l1617 7CF6  
                     l1449 7730                       l1481 79B6                       l1473 7984  
                     l1465 7952                       l1609 7866                       l1713 769A  
                     l1705 768C                       l1537 7CA6                       l1529 7C58  
                     l1553 7A80                       l1545 7A50                       l1721 76AE  
                     l1651 7E00                       l1643 7DB8                       l1635 7D70  
                     l1627 7D3A                       l1619 7CF6                       l1491 7A08  
                     l1483 79C2                       l1475 7988                       l1467 7962  
                     l1715 769C                       l1707 768E                       l1539 7CB4  
                     l1811 7B58                       l1555 7A8C                       l1547 7A5C  
                     l1563 7AB0                       l1723 76C2                       l1661 7E50  
                     l1653 7E06                       l1645 7DC8                       l1637 7D88  
                     l1629 7D4A                       l1397 7876                       l1493 7A0A  
                     l1485 79D0                       l1477 7998                       l1469 7966  
                     l1717 769E                       l1709 7690                       l1821 7B2E  
                     l1813 7B74                       l1557 7A98                       l1549 7A68  
                     l1725 76C6                       l1671 7E92                       l1663 7E64  
                     l1655 7E16                       l1647 7DD8                       l1639 7D8E  
                     l1399 7888                       l1495 7A14                       l1487 79DA  
                     l1479 79AE                       l1823 7B3C                       l1815 7B04  
                     l1559 7AA4                       l1719 76A2                       l1681 7EE2  
                     l1673 7EAC                       l1665 7E68                       l1657 7E30  
                     l1649 7DEC                       l1489 79F8                       l1497 7A1A  
                     l1825 7B4A                       l1817 7B12                       l1809 7ACE  
                     l1675 7EBC                       l1667 7E7C                       l1659 7E40  
                     l1499 7A2A                       l1827 7B66                       l1819 7B20  
                     l1691 7668                       l1677 7ECC                       l1669 7E82  
                     l1829 7764                       l1693 766A                       l1685 764C  
                     l1679 7EE0                       l1695 766C                       l1687 7652  
                     l1697 766E                       l1689 7666                       l1699 7670  
                     STR_1 7FF7                       STR_2 7FCB                       STR_3 7FB6  
                     STR_4 7F62                       STR_5 7F50                       STR_6 7FA0  
                     STR_7 7FDE                       STR_8 7FEF                       STR_9 7F93  
                     u1000 7EE0                       _CREN 7D5C                       u1001 7EDC  
                     _SPEN 7D5F                       _TRMT 7D61            __end_of_UART_Tx 7618  
                     _dbuf 0029                       _main 76A2                       _prec 004B  
                     fsr1h 0FE2                       fsr2h 0FDA                       indf2 0FDF  
                     fsr1l 0FE1                       fsr2l 0FD9                       start 0000  
             ___param_bank 0000   UART_select_baud@baudrate 0001                 _Clock_Init 7CD2  
             _BAUDCON1bits 0FB8            __end_of___aldiv 7A4C                      ?_main 0001  
                    STR_10 7FD5                      STR_11 7F85                      STR_12 7F74  
                    STR_20 7F1F                      STR_13 7FC1                      STR_21 7F38  
                    STR_14 7F85                      STR_22 7F05                      STR_15 7F74  
                    STR_23 7FE7                      STR_16 7FAB                      STR_24 7EE9  
                    STR_17 7F85                      STR_18 7F74                      STR_19 7FE7  
                    _BRGH1 7D62                      _RC1IF 7CF5                      _RCREG 0FAE  
        Clock_Init@bStatus 0003               vfpfcnvrt@fmt 000E           _UART_config_show 7B8C  
                    _SPBRG 0FAF                      _SSPEN 7E35                      _TXEN1 7D65  
                    _SYNC1 7D64                      _flags 004D                      _fputc 7876  
                    _width 0049                      _putch 75F8                      tablat 0FF5  
                    status 0FD8            __initialization 7618               __end_of_main 76D4  
                   ??_main 0029              __activetblptr 0002                  ??_UART_Tx 0001  
                   ?_fputc 0003                     _BRG161 7DC3                     ?_putch 0001  
                   _RCREG1 0FAE                     _SPBRGH 0FB0                     _TRISC6 7CA6  
                   _TRISC7 7CA7                     _SSPBUF 0FC9                     _TXREG1 0FAD  
             vfprintf@cfmt 0015          __end_of_UART_Init 7676                  ??___aldiv 0009  
              ?_Clock_Init 0001                     clear_0 761E                     isa$std 0001  
                   _printf 762E   __end_of_SPI_ErrorHandler 777C                     fputc@c 0003  
             __mediumconst 7EE8                     tblptrh 0FF7                     tblptrl 0FF6  
                   tblptru 0FF8          __end_of_SPI_write 75F8           __end_of_vfprintf 771A  
               __accesstop 0060    __end_of__initialization 7624              ___rparam_used 0001  
         _UART_select_baud 7A4C             __pcstackCOMRAM 0001              __end_of_fputc 7940  
            __end_of_putch 7602                    ??_fputc 0007          ??_SPI_master_init 0029  
                  ??_putch 0002   __end_of_UART_config_show 7CD2        Clock_Init@bItTimeEn 0007  
                  ?_printf 0017                    _SSP1ADD 0FC8                    _UART_Tx 7602  
                  __Hparam 0000                    __Lparam 0000                    ___aldiv 7940  
                ?_vfprintf 0010                    __pcinit 7618                    __ramtop 0800  
                  __ptext0 76A2                    __ptext1 764C                    __ptext2 7A4C  
                  __ptext3 7B8C                    __ptext4 75F0                    __ptext5 7676  
                  __ptext6 77F2                    __ptext7 7940                    __ptext8 771A  
                  __ptext9 762E                UART_Tx@dato 0001           ___aldiv@dividend 0001  
     end_of_initialization 7624                    fputc@fp 0005              __Lmediumconst 7EE8  
    Clock_Init@bStatus_552 0006      Clock_Init@bStatus_548 0004      Clock_Init@bStatus_549 0005  
        __end_of_vfpfcnvrt 77F2                  _RCSTAbits 0FAB           ___aldiv@quotient 000B  
                  postdec2 0FDD                    postinc0 0FEE                    postinc1 0FE6  
                  postinc2 0FDE               ??_Clock_Init 0003                 ??_vfprintf 0015  
                _UART_Init 764C          ?_SPI_ErrorHandler 0001                  _TRISAbits 0F92  
                _TRISBbits 0F93   __end_of_UART_select_baud 7B8C         ??_SPI_ErrorHandler 001A  
                _SPI_write 75F0         __end_of_Clock_Init 7EE8                  _TXSTAbits 0FAC  
        ??_SPI_BaudRateGen 0021                vfpfcnvrt@ap 000F                vfpfcnvrt@fp 000C  
               ?_UART_Init 001A            _SPI_master_init 7676             __end_of_printf 764C  
      start_initialization 7618     SPI_BaudRateGen@baudReg 0025  SPI_ErrorHandler@errorCode 001C  
     Clock_Init@s16Timeout 0001                 ?_SPI_write 0001          ?_UART_config_show 0001  
              vfprintf@fmt 0012         ??_UART_config_show 001A                   ??_printf 0019  
              __pbssCOMRAM 0029                   ?_UART_Tx 0001              SPI_write@dato 0001  
  __end_of_SPI_master_init 76A2              __pmediumconst 7EE8                   ?___aldiv 0001  
              ??_UART_Init 001E                ??_SPI_write 0001            ___aldiv@divisor 0005  
          ___aldiv@counter 0009                  _vfpfcnvrt 777C          UART_Init@baudrate 001A  
    SPI_BaudRateGen@FClock 001D          ?_UART_select_baud 0001            _SPI_BaudRateGen 77F2  
       ??_UART_select_baud 0005                   __Hrparam 0000                 vfprintf@ap 0014  
                 __Lrparam 0000                 vfprintf@fp 0010           ?_SPI_master_init 0001  
               ?_vfpfcnvrt 000C                   __ptext10 76D4                   __ptext11 777C  
                 __ptext12 7876                   __ptext13 75F8                   __ptext14 7602  
                 __ptext15 7CD2                _OSCCON2bits 0FD2                   isa$xinst 0000  
                 _vfprintf 76D4                  printf@fmt 0017    __end_of_SPI_BaudRateGen 7876  
                putch@data 0002                _OSCTUNEbits 0F9B                 _OSCCONbits 0FD3  
                 printf@ap 0019                ??_vfpfcnvrt 0010       Clock_Init@returnCode 0008  
             ___aldiv@sign 000A                _SSPCON1bits 0FC6           _SPI_ErrorHandler 771A  
